ARM GAS  C:\Users\pearlstl\AppData\Local\Temp\ccGCqMEt.s 			page 1


   1              		.syntax unified
   2              		.cpu cortex-m3
   3              		.fpu softvfp
   4              		.eabi_attribute 20, 1
   5              		.eabi_attribute 21, 1
   6              		.eabi_attribute 23, 3
   7              		.eabi_attribute 24, 1
   8              		.eabi_attribute 25, 1
   9              		.eabi_attribute 26, 1
  10              		.eabi_attribute 30, 6
  11              		.eabi_attribute 34, 1
  12              		.eabi_attribute 18, 4
  13              		.thumb
  14              		.syntax unified
  15              		.file	"ADC.c"
  16              		.text
  17              	.Ltext0:
  18              		.cfi_sections	.debug_frame
  19              		.global	ADC_initVar
  20              		.bss
  21              		.type	ADC_initVar, %object
  22              		.size	ADC_initVar, 1
  23              	ADC_initVar:
  24 0000 00       		.space	1
  25              		.comm	ADC_offset,2,2
  26              		.comm	ADC_countsPerVolt,2,2
  27              		.comm	ADC_countsPer10Volt,4,4
  28              		.comm	ADC_shift,2,2
  29              		.section	.text.ADC_Start,"ax",%progbits
  30              		.align	2
  31              		.global	ADC_Start
  32              		.thumb
  33              		.thumb_func
  34              		.type	ADC_Start, %function
  35              	ADC_Start:
  36              	.LFB0:
  37              		.file 1 "Generated_Source\\PSoC5\\ADC.c"
   1:Generated_Source\PSoC5/ADC.c **** /*******************************************************************************
   2:Generated_Source\PSoC5/ADC.c **** * File Name: ADC.c
   3:Generated_Source\PSoC5/ADC.c **** * Version 3.10
   4:Generated_Source\PSoC5/ADC.c **** *
   5:Generated_Source\PSoC5/ADC.c **** * Description:
   6:Generated_Source\PSoC5/ADC.c **** *  This file provides the source code to the API for the Successive
   7:Generated_Source\PSoC5/ADC.c **** *  approximation ADC Component.
   8:Generated_Source\PSoC5/ADC.c **** *
   9:Generated_Source\PSoC5/ADC.c **** * Note:
  10:Generated_Source\PSoC5/ADC.c **** *
  11:Generated_Source\PSoC5/ADC.c **** ********************************************************************************
  12:Generated_Source\PSoC5/ADC.c **** * Copyright 2008-2015, Cypress Semiconductor Corporation.  All rights reserved.
  13:Generated_Source\PSoC5/ADC.c **** * You may use this file only in accordance with the license, terms, conditions,
  14:Generated_Source\PSoC5/ADC.c **** * disclaimers, and limitations in the end user license agreement accompanying
  15:Generated_Source\PSoC5/ADC.c **** * the software package with which this file was provided.
  16:Generated_Source\PSoC5/ADC.c **** *******************************************************************************/
  17:Generated_Source\PSoC5/ADC.c **** 
  18:Generated_Source\PSoC5/ADC.c **** #include "CyLib.h"
  19:Generated_Source\PSoC5/ADC.c **** #include "ADC.h"
  20:Generated_Source\PSoC5/ADC.c **** 
ARM GAS  C:\Users\pearlstl\AppData\Local\Temp\ccGCqMEt.s 			page 2


  21:Generated_Source\PSoC5/ADC.c **** #if(ADC_DEFAULT_INTERNAL_CLK)
  22:Generated_Source\PSoC5/ADC.c ****     #include "ADC_theACLK.h"
  23:Generated_Source\PSoC5/ADC.c **** #endif /* End ADC_DEFAULT_INTERNAL_CLK */
  24:Generated_Source\PSoC5/ADC.c **** 
  25:Generated_Source\PSoC5/ADC.c **** 
  26:Generated_Source\PSoC5/ADC.c **** /***************************************
  27:Generated_Source\PSoC5/ADC.c **** * Forward function references
  28:Generated_Source\PSoC5/ADC.c **** ***************************************/
  29:Generated_Source\PSoC5/ADC.c **** static void ADC_CalcGain(uint8 resolution);
  30:Generated_Source\PSoC5/ADC.c **** 
  31:Generated_Source\PSoC5/ADC.c **** 
  32:Generated_Source\PSoC5/ADC.c **** /***************************************
  33:Generated_Source\PSoC5/ADC.c **** * Global data allocation
  34:Generated_Source\PSoC5/ADC.c **** ***************************************/
  35:Generated_Source\PSoC5/ADC.c **** uint8 ADC_initVar = 0u;
  36:Generated_Source\PSoC5/ADC.c **** volatile int16 ADC_offset;
  37:Generated_Source\PSoC5/ADC.c **** volatile int16 ADC_countsPerVolt;     /* Obsolete Gain compensation */
  38:Generated_Source\PSoC5/ADC.c **** volatile int32 ADC_countsPer10Volt;   /* Gain compensation */
  39:Generated_Source\PSoC5/ADC.c **** volatile int16 ADC_shift;
  40:Generated_Source\PSoC5/ADC.c **** 
  41:Generated_Source\PSoC5/ADC.c **** 
  42:Generated_Source\PSoC5/ADC.c **** /*******************************************************************************
  43:Generated_Source\PSoC5/ADC.c **** * Function Name: ADC_Start
  44:Generated_Source\PSoC5/ADC.c **** ********************************************************************************
  45:Generated_Source\PSoC5/ADC.c **** *
  46:Generated_Source\PSoC5/ADC.c **** * Summary:
  47:Generated_Source\PSoC5/ADC.c **** *  This is the preferred method to begin component operation.
  48:Generated_Source\PSoC5/ADC.c **** *  ADC_Start() sets the initVar variable, calls the
  49:Generated_Source\PSoC5/ADC.c **** *  ADC_Init() function, and then calls the
  50:Generated_Source\PSoC5/ADC.c **** *  ADC_Enable() function.
  51:Generated_Source\PSoC5/ADC.c **** *
  52:Generated_Source\PSoC5/ADC.c **** * Parameters:
  53:Generated_Source\PSoC5/ADC.c **** *  None.
  54:Generated_Source\PSoC5/ADC.c **** *
  55:Generated_Source\PSoC5/ADC.c **** * Return:
  56:Generated_Source\PSoC5/ADC.c **** *  None.
  57:Generated_Source\PSoC5/ADC.c **** *
  58:Generated_Source\PSoC5/ADC.c **** * Global variables:
  59:Generated_Source\PSoC5/ADC.c **** *  The ADC_initVar variable is used to indicate when/if initial
  60:Generated_Source\PSoC5/ADC.c **** *  configuration of this component has happened. The variable is initialized to
  61:Generated_Source\PSoC5/ADC.c **** *  zero and set to 1 the first time ADC_Start() is called. This allows for
  62:Generated_Source\PSoC5/ADC.c **** *  component Re-Start without re-initialization in all subsequent calls to the
  63:Generated_Source\PSoC5/ADC.c **** *  ADC_Start() routine.
  64:Generated_Source\PSoC5/ADC.c **** *  If re-initialization of the component is required the variable should be set
  65:Generated_Source\PSoC5/ADC.c **** *  to zero before call of ADC_Start() routine, or the user may call
  66:Generated_Source\PSoC5/ADC.c **** *  ADC_Init() and ADC_Enable() as done in the
  67:Generated_Source\PSoC5/ADC.c **** *  ADC_Start() routine.
  68:Generated_Source\PSoC5/ADC.c **** *
  69:Generated_Source\PSoC5/ADC.c **** * Side Effect:
  70:Generated_Source\PSoC5/ADC.c **** *  If the initVar variable is already set, this function only calls the
  71:Generated_Source\PSoC5/ADC.c **** *  ADC_Enable() function.
  72:Generated_Source\PSoC5/ADC.c **** *
  73:Generated_Source\PSoC5/ADC.c **** *******************************************************************************/
  74:Generated_Source\PSoC5/ADC.c **** void ADC_Start(void)
  75:Generated_Source\PSoC5/ADC.c **** {
  38              		.loc 1 75 0
  39              		.cfi_startproc
ARM GAS  C:\Users\pearlstl\AppData\Local\Temp\ccGCqMEt.s 			page 3


  40              		@ args = 0, pretend = 0, frame = 0
  41              		@ frame_needed = 1, uses_anonymous_args = 0
  42 0000 80B5     		push	{r7, lr}
  43              		.cfi_def_cfa_offset 8
  44              		.cfi_offset 7, -8
  45              		.cfi_offset 14, -4
  46 0002 00AF     		add	r7, sp, #0
  47              		.cfi_def_cfa_register 7
  76:Generated_Source\PSoC5/ADC.c **** 
  77:Generated_Source\PSoC5/ADC.c ****     /* If not Initialized then initialize all required hardware and software */
  78:Generated_Source\PSoC5/ADC.c ****     if(ADC_initVar == 0u)
  48              		.loc 1 78 0
  49 0004 064B     		ldr	r3, .L3
  50 0006 1B78     		ldrb	r3, [r3]	@ zero_extendqisi2
  51 0008 002B     		cmp	r3, #0
  52 000a 04D1     		bne	.L2
  79:Generated_Source\PSoC5/ADC.c ****     {
  80:Generated_Source\PSoC5/ADC.c ****         ADC_Init();
  53              		.loc 1 80 0
  54 000c FFF7FEFF 		bl	ADC_Init
  81:Generated_Source\PSoC5/ADC.c ****         ADC_initVar = 1u;
  55              		.loc 1 81 0
  56 0010 034B     		ldr	r3, .L3
  57 0012 0122     		movs	r2, #1
  58 0014 1A70     		strb	r2, [r3]
  59              	.L2:
  82:Generated_Source\PSoC5/ADC.c ****     }
  83:Generated_Source\PSoC5/ADC.c ****     ADC_Enable();
  60              		.loc 1 83 0
  61 0016 FFF7FEFF 		bl	ADC_Enable
  84:Generated_Source\PSoC5/ADC.c **** }
  62              		.loc 1 84 0
  63 001a 00BF     		nop
  64 001c 80BD     		pop	{r7, pc}
  65              	.L4:
  66 001e 00BF     		.align	2
  67              	.L3:
  68 0020 00000000 		.word	ADC_initVar
  69              		.cfi_endproc
  70              	.LFE0:
  71              		.size	ADC_Start, .-ADC_Start
  72              		.section	.text.ADC_Init,"ax",%progbits
  73              		.align	2
  74              		.global	ADC_Init
  75              		.thumb
  76              		.thumb_func
  77              		.type	ADC_Init, %function
  78              	ADC_Init:
  79              	.LFB1:
  85:Generated_Source\PSoC5/ADC.c **** 
  86:Generated_Source\PSoC5/ADC.c **** 
  87:Generated_Source\PSoC5/ADC.c **** /*******************************************************************************
  88:Generated_Source\PSoC5/ADC.c **** * Function Name: ADC_Init
  89:Generated_Source\PSoC5/ADC.c **** ********************************************************************************
  90:Generated_Source\PSoC5/ADC.c **** *
  91:Generated_Source\PSoC5/ADC.c **** * Summary:
  92:Generated_Source\PSoC5/ADC.c **** *  Initialize component's parameters to the parameters set by user in the
ARM GAS  C:\Users\pearlstl\AppData\Local\Temp\ccGCqMEt.s 			page 4


  93:Generated_Source\PSoC5/ADC.c **** *  customizer of the component placed onto schematic. Usually called in
  94:Generated_Source\PSoC5/ADC.c **** *  ADC_Start().
  95:Generated_Source\PSoC5/ADC.c **** *
  96:Generated_Source\PSoC5/ADC.c **** * Parameters:
  97:Generated_Source\PSoC5/ADC.c **** *  None.
  98:Generated_Source\PSoC5/ADC.c **** *
  99:Generated_Source\PSoC5/ADC.c **** * Return:
 100:Generated_Source\PSoC5/ADC.c **** *  None.
 101:Generated_Source\PSoC5/ADC.c **** *
 102:Generated_Source\PSoC5/ADC.c **** * Global variables:
 103:Generated_Source\PSoC5/ADC.c **** *  The ADC_offset variable is initialized to 0.
 104:Generated_Source\PSoC5/ADC.c **** *
 105:Generated_Source\PSoC5/ADC.c **** *******************************************************************************/
 106:Generated_Source\PSoC5/ADC.c **** void ADC_Init(void)
 107:Generated_Source\PSoC5/ADC.c **** {
  80              		.loc 1 107 0
  81              		.cfi_startproc
  82              		@ args = 0, pretend = 0, frame = 0
  83              		@ frame_needed = 1, uses_anonymous_args = 0
  84 0000 80B5     		push	{r7, lr}
  85              		.cfi_def_cfa_offset 8
  86              		.cfi_offset 7, -8
  87              		.cfi_offset 14, -4
  88 0002 00AF     		add	r7, sp, #0
  89              		.cfi_def_cfa_register 7
 108:Generated_Source\PSoC5/ADC.c **** 
 109:Generated_Source\PSoC5/ADC.c ****     /* This is only valid if there is an internal clock */
 110:Generated_Source\PSoC5/ADC.c ****     #if(ADC_DEFAULT_INTERNAL_CLK)
 111:Generated_Source\PSoC5/ADC.c ****         ADC_theACLK_SetMode(CYCLK_DUTY);
  90              		.loc 1 111 0
  91 0004 1020     		movs	r0, #16
  92 0006 FFF7FEFF 		bl	ADC_theACLK_SetModeRegister
 112:Generated_Source\PSoC5/ADC.c ****     #endif /* End ADC_DEFAULT_INTERNAL_CLK */
 113:Generated_Source\PSoC5/ADC.c **** 
 114:Generated_Source\PSoC5/ADC.c ****     #if(ADC_IRQ_REMOVE == 0u)
 115:Generated_Source\PSoC5/ADC.c ****         /* Start and set interrupt vector */
 116:Generated_Source\PSoC5/ADC.c ****         CyIntSetPriority(ADC_INTC_NUMBER, ADC_INTC_PRIOR_NUMBER);
  93              		.loc 1 116 0
  94 000a 0721     		movs	r1, #7
  95 000c 0020     		movs	r0, #0
  96 000e FFF7FEFF 		bl	CyIntSetPriority
 117:Generated_Source\PSoC5/ADC.c ****         (void)CyIntSetVector(ADC_INTC_NUMBER, &ADC_ISR);
  97              		.loc 1 117 0
  98 0012 0A49     		ldr	r1, .L6
  99 0014 0020     		movs	r0, #0
 100 0016 FFF7FEFF 		bl	CyIntSetVector
 118:Generated_Source\PSoC5/ADC.c ****     #endif   /* End ADC_IRQ_REMOVE */
 119:Generated_Source\PSoC5/ADC.c **** 
 120:Generated_Source\PSoC5/ADC.c ****     /* Enable IRQ mode*/
 121:Generated_Source\PSoC5/ADC.c ****     ADC_SAR_CSR1_REG |= ADC_SAR_IRQ_MASK_EN | ADC_SAR_IRQ_MODE_EDGE;
 101              		.loc 1 121 0
 102 001a 094A     		ldr	r2, .L6+4
 103 001c 084B     		ldr	r3, .L6+4
 104 001e 1B78     		ldrb	r3, [r3]
 105 0020 DBB2     		uxtb	r3, r3
 106 0022 43F00603 		orr	r3, r3, #6
 107 0026 DBB2     		uxtb	r3, r3
ARM GAS  C:\Users\pearlstl\AppData\Local\Temp\ccGCqMEt.s 			page 5


 108 0028 1370     		strb	r3, [r2]
 122:Generated_Source\PSoC5/ADC.c **** 
 123:Generated_Source\PSoC5/ADC.c ****     /*Set SAR ADC resolution ADC */
 124:Generated_Source\PSoC5/ADC.c ****     ADC_SetResolution(ADC_DEFAULT_RESOLUTION);
 109              		.loc 1 124 0
 110 002a 0C20     		movs	r0, #12
 111 002c FFF7FEFF 		bl	ADC_SetResolution
 125:Generated_Source\PSoC5/ADC.c ****     ADC_offset = 0;
 112              		.loc 1 125 0
 113 0030 044B     		ldr	r3, .L6+8
 114 0032 0022     		movs	r2, #0
 115 0034 1A80     		strh	r2, [r3]	@ movhi
 126:Generated_Source\PSoC5/ADC.c **** }
 116              		.loc 1 126 0
 117 0036 00BF     		nop
 118 0038 80BD     		pop	{r7, pc}
 119              	.L7:
 120 003a 00BF     		.align	2
 121              	.L6:
 122 003c 00000000 		.word	ADC_ISR
 123 0040 01590040 		.word	1073764609
 124 0044 00000000 		.word	ADC_offset
 125              		.cfi_endproc
 126              	.LFE1:
 127              		.size	ADC_Init, .-ADC_Init
 128              		.section	.text.ADC_Enable,"ax",%progbits
 129              		.align	2
 130              		.global	ADC_Enable
 131              		.thumb
 132              		.thumb_func
 133              		.type	ADC_Enable, %function
 134              	ADC_Enable:
 135              	.LFB2:
 127:Generated_Source\PSoC5/ADC.c **** 
 128:Generated_Source\PSoC5/ADC.c **** 
 129:Generated_Source\PSoC5/ADC.c **** /*******************************************************************************
 130:Generated_Source\PSoC5/ADC.c **** * Function Name: ADC_Enable
 131:Generated_Source\PSoC5/ADC.c **** ********************************************************************************
 132:Generated_Source\PSoC5/ADC.c **** *
 133:Generated_Source\PSoC5/ADC.c **** * Summary:
 134:Generated_Source\PSoC5/ADC.c **** *  Enables the reference, clock and power for SAR ADC.
 135:Generated_Source\PSoC5/ADC.c **** *
 136:Generated_Source\PSoC5/ADC.c **** * Parameters:
 137:Generated_Source\PSoC5/ADC.c **** *  None.
 138:Generated_Source\PSoC5/ADC.c **** *
 139:Generated_Source\PSoC5/ADC.c **** * Return:
 140:Generated_Source\PSoC5/ADC.c **** *  None.
 141:Generated_Source\PSoC5/ADC.c **** *
 142:Generated_Source\PSoC5/ADC.c **** *******************************************************************************/
 143:Generated_Source\PSoC5/ADC.c **** void ADC_Enable(void)
 144:Generated_Source\PSoC5/ADC.c **** {
 136              		.loc 1 144 0
 137              		.cfi_startproc
 138              		@ args = 0, pretend = 0, frame = 8
 139              		@ frame_needed = 1, uses_anonymous_args = 0
 140 0000 80B5     		push	{r7, lr}
 141              		.cfi_def_cfa_offset 8
ARM GAS  C:\Users\pearlstl\AppData\Local\Temp\ccGCqMEt.s 			page 6


 142              		.cfi_offset 7, -8
 143              		.cfi_offset 14, -4
 144 0002 82B0     		sub	sp, sp, #8
 145              		.cfi_def_cfa_offset 16
 146 0004 00AF     		add	r7, sp, #0
 147              		.cfi_def_cfa_register 7
 145:Generated_Source\PSoC5/ADC.c ****     uint8 tmpReg;
 146:Generated_Source\PSoC5/ADC.c ****     uint8 enableInterrupts;
 147:Generated_Source\PSoC5/ADC.c ****     enableInterrupts = CyEnterCriticalSection();
 148              		.loc 1 147 0
 149 0006 FFF7FEFF 		bl	CyEnterCriticalSection
 150 000a 0346     		mov	r3, r0
 151 000c FB71     		strb	r3, [r7, #7]
 148:Generated_Source\PSoC5/ADC.c **** 
 149:Generated_Source\PSoC5/ADC.c ****     /* Enable the SAR ADC block in Active Power Mode */
 150:Generated_Source\PSoC5/ADC.c ****     ADC_PWRMGR_SAR_REG |= ADC_ACT_PWR_SAR_EN;
 152              		.loc 1 150 0
 153 000e 2E4A     		ldr	r2, .L9
 154 0010 2D4B     		ldr	r3, .L9
 155 0012 1B78     		ldrb	r3, [r3]
 156 0014 DBB2     		uxtb	r3, r3
 157 0016 43F00103 		orr	r3, r3, #1
 158 001a DBB2     		uxtb	r3, r3
 159 001c 1370     		strb	r3, [r2]
 151:Generated_Source\PSoC5/ADC.c **** 
 152:Generated_Source\PSoC5/ADC.c ****      /* Enable the SAR ADC in Standby Power Mode*/
 153:Generated_Source\PSoC5/ADC.c ****     ADC_STBY_PWRMGR_SAR_REG |= ADC_STBY_PWR_SAR_EN;
 160              		.loc 1 153 0
 161 001e 2B4A     		ldr	r2, .L9+4
 162 0020 2A4B     		ldr	r3, .L9+4
 163 0022 1B78     		ldrb	r3, [r3]
 164 0024 DBB2     		uxtb	r3, r3
 165 0026 43F00103 		orr	r3, r3, #1
 166 002a DBB2     		uxtb	r3, r3
 167 002c 1370     		strb	r3, [r2]
 154:Generated_Source\PSoC5/ADC.c **** 
 155:Generated_Source\PSoC5/ADC.c ****     /* This is only valid if there is an internal clock */
 156:Generated_Source\PSoC5/ADC.c ****     #if(ADC_DEFAULT_INTERNAL_CLK)
 157:Generated_Source\PSoC5/ADC.c ****         ADC_PWRMGR_CLK_REG |= ADC_ACT_PWR_CLK_EN;
 168              		.loc 1 157 0
 169 002e 284A     		ldr	r2, .L9+8
 170 0030 274B     		ldr	r3, .L9+8
 171 0032 1B78     		ldrb	r3, [r3]
 172 0034 DBB2     		uxtb	r3, r3
 173 0036 43F00103 		orr	r3, r3, #1
 174 003a DBB2     		uxtb	r3, r3
 175 003c 1370     		strb	r3, [r2]
 158:Generated_Source\PSoC5/ADC.c ****         ADC_STBY_PWRMGR_CLK_REG |= ADC_STBY_PWR_CLK_EN;
 176              		.loc 1 158 0
 177 003e 254A     		ldr	r2, .L9+12
 178 0040 244B     		ldr	r3, .L9+12
 179 0042 1B78     		ldrb	r3, [r3]
 180 0044 DBB2     		uxtb	r3, r3
 181 0046 43F00103 		orr	r3, r3, #1
 182 004a DBB2     		uxtb	r3, r3
 183 004c 1370     		strb	r3, [r2]
 159:Generated_Source\PSoC5/ADC.c ****     #endif /* End ADC_DEFAULT_INTERNAL_CLK */
ARM GAS  C:\Users\pearlstl\AppData\Local\Temp\ccGCqMEt.s 			page 7


 160:Generated_Source\PSoC5/ADC.c **** 
 161:Generated_Source\PSoC5/ADC.c ****     /* Enable VCM buffer and Enable Int Ref Amp */
 162:Generated_Source\PSoC5/ADC.c ****     tmpReg = ADC_SAR_CSR3_REG;
 184              		.loc 1 162 0
 185 004e 224B     		ldr	r3, .L9+16
 186 0050 1B78     		ldrb	r3, [r3]
 187 0052 BB71     		strb	r3, [r7, #6]
 163:Generated_Source\PSoC5/ADC.c ****     tmpReg |= ADC_SAR_EN_BUF_VCM_EN;
 188              		.loc 1 163 0
 189 0054 BB79     		ldrb	r3, [r7, #6]
 190 0056 43F00203 		orr	r3, r3, #2
 191 005a BB71     		strb	r3, [r7, #6]
 164:Generated_Source\PSoC5/ADC.c ****     /* PD_BUF_VREF is OFF in External reference or Vdda reference mode */
 165:Generated_Source\PSoC5/ADC.c ****     #if((ADC_DEFAULT_REFERENCE == ADC__EXT_REF) || \
 166:Generated_Source\PSoC5/ADC.c ****         (ADC_DEFAULT_RANGE == ADC__VNEG_VDDA_DIFF))
 167:Generated_Source\PSoC5/ADC.c ****         tmpReg &= (uint8)~ADC_SAR_EN_BUF_VREF_EN;
 168:Generated_Source\PSoC5/ADC.c ****     #else /* In INTREF or INTREF Bypassed this buffer is ON */
 169:Generated_Source\PSoC5/ADC.c ****         tmpReg |= ADC_SAR_EN_BUF_VREF_EN;
 192              		.loc 1 169 0
 193 005c BB79     		ldrb	r3, [r7, #6]
 194 005e 43F00103 		orr	r3, r3, #1
 195 0062 BB71     		strb	r3, [r7, #6]
 170:Generated_Source\PSoC5/ADC.c ****     #endif /* ADC_DEFAULT_REFERENCE == ADC__EXT_REF */
 171:Generated_Source\PSoC5/ADC.c ****     ADC_SAR_CSR3_REG = tmpReg;
 196              		.loc 1 171 0
 197 0064 1C4A     		ldr	r2, .L9+16
 198 0066 BB79     		ldrb	r3, [r7, #6]
 199 0068 1370     		strb	r3, [r2]
 172:Generated_Source\PSoC5/ADC.c **** 
 173:Generated_Source\PSoC5/ADC.c ****     /* Set reference for ADC */
 174:Generated_Source\PSoC5/ADC.c ****     #if(ADC_DEFAULT_RANGE == ADC__VNEG_VDDA_DIFF)
 175:Generated_Source\PSoC5/ADC.c ****         #if(ADC_DEFAULT_REFERENCE == ADC__EXT_REF)
 176:Generated_Source\PSoC5/ADC.c ****             ADC_SAR_CSR6_REG = ADC_INT_BYPASS_EXT_VREF; /* S2 */
 177:Generated_Source\PSoC5/ADC.c ****         #else /* Internal Vdda reference or obsolete bypass mode */
 178:Generated_Source\PSoC5/ADC.c ****             ADC_SAR_CSR6_REG = ADC_VDDA_VREF;           /* S7 */
 179:Generated_Source\PSoC5/ADC.c ****         #endif /* ADC_DEFAULT_REFERENCE == ADC__EXT_REF */
 180:Generated_Source\PSoC5/ADC.c ****     #else  /* Reference goes through internal buffer */
 181:Generated_Source\PSoC5/ADC.c ****         #if(ADC_DEFAULT_REFERENCE == ADC__INT_REF_NOT_BYPASSED)
 182:Generated_Source\PSoC5/ADC.c ****             ADC_SAR_CSR6_REG = ADC_INT_VREF;            /* S3 + S4 */
 200              		.loc 1 182 0
 201 006a 1C4B     		ldr	r3, .L9+20
 202 006c 1822     		movs	r2, #24
 203 006e 1A70     		strb	r2, [r3]
 183:Generated_Source\PSoC5/ADC.c ****         #else /* INTREF Bypassed of External */
 184:Generated_Source\PSoC5/ADC.c ****             ADC_SAR_CSR6_REG = ADC_INT_BYPASS_EXT_VREF; /* S2 */
 185:Generated_Source\PSoC5/ADC.c ****         #endif /* ADC_DEFAULT_REFERENCE == ADC__INT_REF_NOT_BYPASSED */
 186:Generated_Source\PSoC5/ADC.c ****     #endif /* VNEG_VDDA_DIFF */
 187:Generated_Source\PSoC5/ADC.c **** 
 188:Generated_Source\PSoC5/ADC.c ****     /* Low non-overlap delay for sampling clock signals (for 1MSPS) */
 189:Generated_Source\PSoC5/ADC.c ****     #if(ADC_HIGH_POWER_PULSE == 0u) /* MinPulseWidth <= 50 ns */
 190:Generated_Source\PSoC5/ADC.c ****         ADC_SAR_CSR5_REG &= (uint8)~ADC_SAR_DLY_INC;
 191:Generated_Source\PSoC5/ADC.c ****     #else /* Set High non-overlap delay for sampling clock signals (for <500KSPS)*/
 192:Generated_Source\PSoC5/ADC.c ****         ADC_SAR_CSR5_REG |= ADC_SAR_DLY_INC;
 204              		.loc 1 192 0
 205 0070 1B4A     		ldr	r2, .L9+24
 206 0072 1B4B     		ldr	r3, .L9+24
 207 0074 1B78     		ldrb	r3, [r3]
ARM GAS  C:\Users\pearlstl\AppData\Local\Temp\ccGCqMEt.s 			page 8


 208 0076 DBB2     		uxtb	r3, r3
 209 0078 43F04003 		orr	r3, r3, #64
 210 007c DBB2     		uxtb	r3, r3
 211 007e 1370     		strb	r3, [r2]
 193:Generated_Source\PSoC5/ADC.c ****     #endif /* ADC_HIGH_POWER_PULSE == 0u */
 194:Generated_Source\PSoC5/ADC.c **** 
 195:Generated_Source\PSoC5/ADC.c ****     /* Increase comparator latch enable delay by 20%, 
 196:Generated_Source\PSoC5/ADC.c ****     *  Increase comparator bias current by 30% without impacting delaysDelay 
 197:Generated_Source\PSoC5/ADC.c ****     *  Default for 1MSPS) 
 198:Generated_Source\PSoC5/ADC.c ****     */
 199:Generated_Source\PSoC5/ADC.c ****     #if(ADC_HIGH_POWER_PULSE == 0u)    /* MinPulseWidth <= 50 ns */
 200:Generated_Source\PSoC5/ADC.c ****         ADC_SAR_CSR5_REG |= ADC_SAR_SEL_CSEL_DFT_CHAR;
 201:Generated_Source\PSoC5/ADC.c ****     #else /* for <500ksps */
 202:Generated_Source\PSoC5/ADC.c ****         ADC_SAR_CSR5_REG &= (uint8)~ADC_SAR_SEL_CSEL_DFT_CHAR;
 212              		.loc 1 202 0
 213 0080 174A     		ldr	r2, .L9+24
 214 0082 174B     		ldr	r3, .L9+24
 215 0084 1B78     		ldrb	r3, [r3]
 216 0086 DBB2     		uxtb	r3, r3
 217 0088 23F00303 		bic	r3, r3, #3
 218 008c DBB2     		uxtb	r3, r3
 219 008e 1370     		strb	r3, [r2]
 203:Generated_Source\PSoC5/ADC.c ****     #endif /* ADC_HIGH_POWER_PULSE == 0u */
 204:Generated_Source\PSoC5/ADC.c **** 
 205:Generated_Source\PSoC5/ADC.c ****     /* Set default power and other configurations for control register 0 in multiple lines */
 206:Generated_Source\PSoC5/ADC.c ****     ADC_SAR_CSR0_REG = (uint8)((uint8)ADC_DEFAULT_POWER << ADC_SAR_POWER_SHIFT)
 220              		.loc 1 206 0
 221 0090 144B     		ldr	r3, .L9+28
 222 0092 CE22     		movs	r2, #206
 223 0094 1A70     		strb	r2, [r3]
 207:Generated_Source\PSoC5/ADC.c ****     /* SAR_HIZ_CLEAR:   Should not be used for LP */
 208:Generated_Source\PSoC5/ADC.c ****     #if ((CY_PSOC5LP) || (ADC_DEFAULT_REFERENCE != ADC__EXT_REF))
 209:Generated_Source\PSoC5/ADC.c ****         | ADC_SAR_HIZ_CLEAR
 210:Generated_Source\PSoC5/ADC.c ****     #endif /* SAR_HIZ_CLEAR */
 211:Generated_Source\PSoC5/ADC.c ****     /*Set Convertion mode */
 212:Generated_Source\PSoC5/ADC.c ****     #if(ADC_DEFAULT_CONV_MODE != ADC__FREE_RUNNING)      /* If triggered mode */
 213:Generated_Source\PSoC5/ADC.c ****         | ADC_SAR_MX_SOF_UDB           /* source: UDB */
 214:Generated_Source\PSoC5/ADC.c ****         | ADC_SAR_SOF_MODE_EDGE        /* Set edge-sensitive sof source */
 215:Generated_Source\PSoC5/ADC.c ****     #endif /* ADC_DEFAULT_CONV_MODE */
 216:Generated_Source\PSoC5/ADC.c ****     ; /* end of multiple line initialization */
 217:Generated_Source\PSoC5/ADC.c **** 
 218:Generated_Source\PSoC5/ADC.c ****     ADC_SAR_TR0_REG = ADC_SAR_CAP_TRIM_2;
 224              		.loc 1 218 0
 225 0096 144B     		ldr	r3, .L9+32
 226 0098 0222     		movs	r2, #2
 227 009a 1A70     		strb	r2, [r3]
 219:Generated_Source\PSoC5/ADC.c **** 
 220:Generated_Source\PSoC5/ADC.c ****     /* Enable clock for SAR ADC*/
 221:Generated_Source\PSoC5/ADC.c ****     ADC_SAR_CLK_REG |= ADC_SAR_MX_CLK_EN;
 228              		.loc 1 221 0
 229 009c 134A     		ldr	r2, .L9+36
 230 009e 134B     		ldr	r3, .L9+36
 231 00a0 1B78     		ldrb	r3, [r3]
 232 00a2 DBB2     		uxtb	r3, r3
 233 00a4 43F00803 		orr	r3, r3, #8
 234 00a8 DBB2     		uxtb	r3, r3
 235 00aa 1370     		strb	r3, [r2]
ARM GAS  C:\Users\pearlstl\AppData\Local\Temp\ccGCqMEt.s 			page 9


 222:Generated_Source\PSoC5/ADC.c **** 
 223:Generated_Source\PSoC5/ADC.c ****     CyDelayUs(10u); /* The block is ready to use 10 us after the enable signal is set high. */
 236              		.loc 1 223 0
 237 00ac 0A20     		movs	r0, #10
 238 00ae FFF7FEFF 		bl	CyDelayUs
 224:Generated_Source\PSoC5/ADC.c **** 
 225:Generated_Source\PSoC5/ADC.c ****     #if(ADC_IRQ_REMOVE == 0u)
 226:Generated_Source\PSoC5/ADC.c ****         /* Clear a pending interrupt */
 227:Generated_Source\PSoC5/ADC.c ****         CyIntClearPending(ADC_INTC_NUMBER);
 239              		.loc 1 227 0
 240 00b2 0F4B     		ldr	r3, .L9+40
 241 00b4 0122     		movs	r2, #1
 242 00b6 1A60     		str	r2, [r3]
 228:Generated_Source\PSoC5/ADC.c ****     #endif   /* End ADC_IRQ_REMOVE */
 229:Generated_Source\PSoC5/ADC.c **** 
 230:Generated_Source\PSoC5/ADC.c ****     CyExitCriticalSection(enableInterrupts);
 243              		.loc 1 230 0
 244 00b8 FB79     		ldrb	r3, [r7, #7]	@ zero_extendqisi2
 245 00ba 1846     		mov	r0, r3
 246 00bc FFF7FEFF 		bl	CyExitCriticalSection
 231:Generated_Source\PSoC5/ADC.c **** }
 247              		.loc 1 231 0
 248 00c0 00BF     		nop
 249 00c2 0837     		adds	r7, r7, #8
 250              		.cfi_def_cfa_offset 8
 251 00c4 BD46     		mov	sp, r7
 252              		.cfi_def_cfa_register 13
 253              		@ sp needed
 254 00c6 80BD     		pop	{r7, pc}
 255              	.L10:
 256              		.align	2
 257              	.L9:
 258 00c8 AB430040 		.word	1073759147
 259 00cc BB430040 		.word	1073759163
 260 00d0 A1430040 		.word	1073759137
 261 00d4 B1430040 		.word	1073759153
 262 00d8 03590040 		.word	1073764611
 263 00dc 06590040 		.word	1073764614
 264 00e0 05590040 		.word	1073764613
 265 00e4 00590040 		.word	1073764608
 266 00e8 14460040 		.word	1073759764
 267 00ec 275B0040 		.word	1073765159
 268 00f0 80E200E0 		.word	-536812928
 269              		.cfi_endproc
 270              	.LFE2:
 271              		.size	ADC_Enable, .-ADC_Enable
 272              		.section	.text.ADC_Stop,"ax",%progbits
 273              		.align	2
 274              		.global	ADC_Stop
 275              		.thumb
 276              		.thumb_func
 277              		.type	ADC_Stop, %function
 278              	ADC_Stop:
 279              	.LFB3:
 232:Generated_Source\PSoC5/ADC.c **** 
 233:Generated_Source\PSoC5/ADC.c **** 
 234:Generated_Source\PSoC5/ADC.c **** /*******************************************************************************
ARM GAS  C:\Users\pearlstl\AppData\Local\Temp\ccGCqMEt.s 			page 10


 235:Generated_Source\PSoC5/ADC.c **** * Function Name: ADC_Stop
 236:Generated_Source\PSoC5/ADC.c **** ********************************************************************************
 237:Generated_Source\PSoC5/ADC.c **** *
 238:Generated_Source\PSoC5/ADC.c **** * Summary:
 239:Generated_Source\PSoC5/ADC.c **** *  Stops ADC conversions and puts the ADC into its lowest power mode.
 240:Generated_Source\PSoC5/ADC.c **** *
 241:Generated_Source\PSoC5/ADC.c **** * Parameters:
 242:Generated_Source\PSoC5/ADC.c **** *  None.
 243:Generated_Source\PSoC5/ADC.c **** *
 244:Generated_Source\PSoC5/ADC.c **** * Return:
 245:Generated_Source\PSoC5/ADC.c **** *  None.
 246:Generated_Source\PSoC5/ADC.c **** *
 247:Generated_Source\PSoC5/ADC.c **** *******************************************************************************/
 248:Generated_Source\PSoC5/ADC.c **** void ADC_Stop(void)
 249:Generated_Source\PSoC5/ADC.c **** {
 280              		.loc 1 249 0
 281              		.cfi_startproc
 282              		@ args = 0, pretend = 0, frame = 8
 283              		@ frame_needed = 1, uses_anonymous_args = 0
 284 0000 80B5     		push	{r7, lr}
 285              		.cfi_def_cfa_offset 8
 286              		.cfi_offset 7, -8
 287              		.cfi_offset 14, -4
 288 0002 82B0     		sub	sp, sp, #8
 289              		.cfi_def_cfa_offset 16
 290 0004 00AF     		add	r7, sp, #0
 291              		.cfi_def_cfa_register 7
 250:Generated_Source\PSoC5/ADC.c ****     uint8 enableInterrupts;
 251:Generated_Source\PSoC5/ADC.c ****     enableInterrupts = CyEnterCriticalSection();
 292              		.loc 1 251 0
 293 0006 FFF7FEFF 		bl	CyEnterCriticalSection
 294 000a 0346     		mov	r3, r0
 295 000c FB71     		strb	r3, [r7, #7]
 252:Generated_Source\PSoC5/ADC.c **** 
 253:Generated_Source\PSoC5/ADC.c ****     /* Stop all conversions */
 254:Generated_Source\PSoC5/ADC.c ****     ADC_SAR_CSR0_REG &= (uint8)~ADC_SAR_SOF_START_CONV;
 296              		.loc 1 254 0
 297 000e 184A     		ldr	r2, .L12
 298 0010 174B     		ldr	r3, .L12
 299 0012 1B78     		ldrb	r3, [r3]
 300 0014 DBB2     		uxtb	r3, r3
 301 0016 23F00103 		bic	r3, r3, #1
 302 001a DBB2     		uxtb	r3, r3
 303 001c 1370     		strb	r3, [r2]
 255:Generated_Source\PSoC5/ADC.c ****     /* Disable the SAR ADC block in Active Power Mode */
 256:Generated_Source\PSoC5/ADC.c ****     ADC_PWRMGR_SAR_REG &= (uint8)~ADC_ACT_PWR_SAR_EN;
 304              		.loc 1 256 0
 305 001e 154A     		ldr	r2, .L12+4
 306 0020 144B     		ldr	r3, .L12+4
 307 0022 1B78     		ldrb	r3, [r3]
 308 0024 DBB2     		uxtb	r3, r3
 309 0026 23F00103 		bic	r3, r3, #1
 310 002a DBB2     		uxtb	r3, r3
 311 002c 1370     		strb	r3, [r2]
 257:Generated_Source\PSoC5/ADC.c ****     /* Disable the SAR ADC in Standby Power Mode */
 258:Generated_Source\PSoC5/ADC.c ****     ADC_STBY_PWRMGR_SAR_REG &= (uint8)~ADC_STBY_PWR_SAR_EN;
 312              		.loc 1 258 0
ARM GAS  C:\Users\pearlstl\AppData\Local\Temp\ccGCqMEt.s 			page 11


 313 002e 124A     		ldr	r2, .L12+8
 314 0030 114B     		ldr	r3, .L12+8
 315 0032 1B78     		ldrb	r3, [r3]
 316 0034 DBB2     		uxtb	r3, r3
 317 0036 23F00103 		bic	r3, r3, #1
 318 003a DBB2     		uxtb	r3, r3
 319 003c 1370     		strb	r3, [r2]
 259:Generated_Source\PSoC5/ADC.c **** 
 260:Generated_Source\PSoC5/ADC.c ****     /* This is only valid if there is an internal clock */
 261:Generated_Source\PSoC5/ADC.c ****     #if(ADC_DEFAULT_INTERNAL_CLK)
 262:Generated_Source\PSoC5/ADC.c ****         ADC_PWRMGR_CLK_REG &= (uint8)~ADC_ACT_PWR_CLK_EN;
 320              		.loc 1 262 0
 321 003e 0F4A     		ldr	r2, .L12+12
 322 0040 0E4B     		ldr	r3, .L12+12
 323 0042 1B78     		ldrb	r3, [r3]
 324 0044 DBB2     		uxtb	r3, r3
 325 0046 23F00103 		bic	r3, r3, #1
 326 004a DBB2     		uxtb	r3, r3
 327 004c 1370     		strb	r3, [r2]
 263:Generated_Source\PSoC5/ADC.c ****         ADC_STBY_PWRMGR_CLK_REG &= (uint8)~ADC_STBY_PWR_CLK_EN;
 328              		.loc 1 263 0
 329 004e 0C4A     		ldr	r2, .L12+16
 330 0050 0B4B     		ldr	r3, .L12+16
 331 0052 1B78     		ldrb	r3, [r3]
 332 0054 DBB2     		uxtb	r3, r3
 333 0056 23F00103 		bic	r3, r3, #1
 334 005a DBB2     		uxtb	r3, r3
 335 005c 1370     		strb	r3, [r2]
 264:Generated_Source\PSoC5/ADC.c ****     #endif /* End ADC_DEFAULT_INTERNAL_CLK */
 265:Generated_Source\PSoC5/ADC.c **** 
 266:Generated_Source\PSoC5/ADC.c ****     CyExitCriticalSection(enableInterrupts);
 336              		.loc 1 266 0
 337 005e FB79     		ldrb	r3, [r7, #7]	@ zero_extendqisi2
 338 0060 1846     		mov	r0, r3
 339 0062 FFF7FEFF 		bl	CyExitCriticalSection
 267:Generated_Source\PSoC5/ADC.c **** 
 268:Generated_Source\PSoC5/ADC.c **** }
 340              		.loc 1 268 0
 341 0066 00BF     		nop
 342 0068 0837     		adds	r7, r7, #8
 343              		.cfi_def_cfa_offset 8
 344 006a BD46     		mov	sp, r7
 345              		.cfi_def_cfa_register 13
 346              		@ sp needed
 347 006c 80BD     		pop	{r7, pc}
 348              	.L13:
 349 006e 00BF     		.align	2
 350              	.L12:
 351 0070 00590040 		.word	1073764608
 352 0074 AB430040 		.word	1073759147
 353 0078 BB430040 		.word	1073759163
 354 007c A1430040 		.word	1073759137
 355 0080 B1430040 		.word	1073759153
 356              		.cfi_endproc
 357              	.LFE3:
 358              		.size	ADC_Stop, .-ADC_Stop
 359              		.section	.text.ADC_SetPower,"ax",%progbits
ARM GAS  C:\Users\pearlstl\AppData\Local\Temp\ccGCqMEt.s 			page 12


 360              		.align	2
 361              		.global	ADC_SetPower
 362              		.thumb
 363              		.thumb_func
 364              		.type	ADC_SetPower, %function
 365              	ADC_SetPower:
 366              	.LFB4:
 269:Generated_Source\PSoC5/ADC.c **** 
 270:Generated_Source\PSoC5/ADC.c **** 
 271:Generated_Source\PSoC5/ADC.c **** /*******************************************************************************
 272:Generated_Source\PSoC5/ADC.c **** * Function Name: ADC_SetPower
 273:Generated_Source\PSoC5/ADC.c **** ********************************************************************************
 274:Generated_Source\PSoC5/ADC.c **** *
 275:Generated_Source\PSoC5/ADC.c **** * Summary:
 276:Generated_Source\PSoC5/ADC.c **** *  Sets the operational power of the ADC. You should use the higher power
 277:Generated_Source\PSoC5/ADC.c **** *  settings with faster clock speeds.
 278:Generated_Source\PSoC5/ADC.c **** *
 279:Generated_Source\PSoC5/ADC.c **** * Parameters:
 280:Generated_Source\PSoC5/ADC.c **** *  power:  Power setting for ADC
 281:Generated_Source\PSoC5/ADC.c **** *  0 ->    Normal
 282:Generated_Source\PSoC5/ADC.c **** *  1 ->    Medium power
 283:Generated_Source\PSoC5/ADC.c **** *  2 ->    1.25 power
 284:Generated_Source\PSoC5/ADC.c **** *  3 ->    Minimum power.
 285:Generated_Source\PSoC5/ADC.c **** *
 286:Generated_Source\PSoC5/ADC.c **** * Return:
 287:Generated_Source\PSoC5/ADC.c **** *  None.
 288:Generated_Source\PSoC5/ADC.c **** *
 289:Generated_Source\PSoC5/ADC.c **** *******************************************************************************/
 290:Generated_Source\PSoC5/ADC.c **** void ADC_SetPower(uint8 power)
 291:Generated_Source\PSoC5/ADC.c **** {
 367              		.loc 1 291 0
 368              		.cfi_startproc
 369              		@ args = 0, pretend = 0, frame = 16
 370              		@ frame_needed = 1, uses_anonymous_args = 0
 371              		@ link register save eliminated.
 372 0000 80B4     		push	{r7}
 373              		.cfi_def_cfa_offset 4
 374              		.cfi_offset 7, -4
 375 0002 85B0     		sub	sp, sp, #20
 376              		.cfi_def_cfa_offset 24
 377 0004 00AF     		add	r7, sp, #0
 378              		.cfi_def_cfa_register 7
 379 0006 0346     		mov	r3, r0
 380 0008 FB71     		strb	r3, [r7, #7]
 292:Generated_Source\PSoC5/ADC.c ****     uint8 tmpReg;
 293:Generated_Source\PSoC5/ADC.c **** 
 294:Generated_Source\PSoC5/ADC.c ****     /* mask off invalid power settings */
 295:Generated_Source\PSoC5/ADC.c ****     power &= ADC_SAR_API_POWER_MASK;
 381              		.loc 1 295 0
 382 000a FB79     		ldrb	r3, [r7, #7]
 383 000c 03F00303 		and	r3, r3, #3
 384 0010 FB71     		strb	r3, [r7, #7]
 296:Generated_Source\PSoC5/ADC.c **** 
 297:Generated_Source\PSoC5/ADC.c ****     /* Set Power parameter  */
 298:Generated_Source\PSoC5/ADC.c ****     tmpReg = ADC_SAR_CSR0_REG & (uint8)~ADC_SAR_POWER_MASK;
 385              		.loc 1 298 0
 386 0012 0A4B     		ldr	r3, .L15
ARM GAS  C:\Users\pearlstl\AppData\Local\Temp\ccGCqMEt.s 			page 13


 387 0014 1B78     		ldrb	r3, [r3]
 388 0016 DBB2     		uxtb	r3, r3
 389 0018 03F03F03 		and	r3, r3, #63
 390 001c FB73     		strb	r3, [r7, #15]
 299:Generated_Source\PSoC5/ADC.c ****     tmpReg |= (uint8)(power << ADC_SAR_POWER_SHIFT);
 391              		.loc 1 299 0
 392 001e FB79     		ldrb	r3, [r7, #7]
 393 0020 9B01     		lsls	r3, r3, #6
 394 0022 DAB2     		uxtb	r2, r3
 395 0024 FB7B     		ldrb	r3, [r7, #15]
 396 0026 1343     		orrs	r3, r3, r2
 397 0028 FB73     		strb	r3, [r7, #15]
 300:Generated_Source\PSoC5/ADC.c ****     ADC_SAR_CSR0_REG = tmpReg;
 398              		.loc 1 300 0
 399 002a 044A     		ldr	r2, .L15
 400 002c FB7B     		ldrb	r3, [r7, #15]
 401 002e 1370     		strb	r3, [r2]
 301:Generated_Source\PSoC5/ADC.c **** }
 402              		.loc 1 301 0
 403 0030 00BF     		nop
 404 0032 1437     		adds	r7, r7, #20
 405              		.cfi_def_cfa_offset 4
 406 0034 BD46     		mov	sp, r7
 407              		.cfi_def_cfa_register 13
 408              		@ sp needed
 409 0036 80BC     		pop	{r7}
 410              		.cfi_restore 7
 411              		.cfi_def_cfa_offset 0
 412 0038 7047     		bx	lr
 413              	.L16:
 414 003a 00BF     		.align	2
 415              	.L15:
 416 003c 00590040 		.word	1073764608
 417              		.cfi_endproc
 418              	.LFE4:
 419              		.size	ADC_SetPower, .-ADC_SetPower
 420              		.section	.text.ADC_SetResolution,"ax",%progbits
 421              		.align	2
 422              		.global	ADC_SetResolution
 423              		.thumb
 424              		.thumb_func
 425              		.type	ADC_SetResolution, %function
 426              	ADC_SetResolution:
 427              	.LFB5:
 302:Generated_Source\PSoC5/ADC.c **** 
 303:Generated_Source\PSoC5/ADC.c **** 
 304:Generated_Source\PSoC5/ADC.c **** /*******************************************************************************
 305:Generated_Source\PSoC5/ADC.c **** * Function Name: ADC_SetResolution
 306:Generated_Source\PSoC5/ADC.c **** ********************************************************************************
 307:Generated_Source\PSoC5/ADC.c **** *
 308:Generated_Source\PSoC5/ADC.c **** * Summary:
 309:Generated_Source\PSoC5/ADC.c **** *  Sets the Relution of the SAR.
 310:Generated_Source\PSoC5/ADC.c **** *
 311:Generated_Source\PSoC5/ADC.c **** * Parameters:
 312:Generated_Source\PSoC5/ADC.c **** *  resolution:
 313:Generated_Source\PSoC5/ADC.c **** *  12 ->    RES12
 314:Generated_Source\PSoC5/ADC.c **** *  10 ->    RES10
ARM GAS  C:\Users\pearlstl\AppData\Local\Temp\ccGCqMEt.s 			page 14


 315:Generated_Source\PSoC5/ADC.c **** *  8  ->    RES8
 316:Generated_Source\PSoC5/ADC.c **** *
 317:Generated_Source\PSoC5/ADC.c **** * Return:
 318:Generated_Source\PSoC5/ADC.c **** *  None.
 319:Generated_Source\PSoC5/ADC.c **** *
 320:Generated_Source\PSoC5/ADC.c **** * Side Effects:
 321:Generated_Source\PSoC5/ADC.c **** *  The ADC resolution cannot be changed during a conversion cycle. The
 322:Generated_Source\PSoC5/ADC.c **** *  recommended best practice is to stop conversions with
 323:Generated_Source\PSoC5/ADC.c **** *  ADC_StopConvert(), change the resolution, then restart the
 324:Generated_Source\PSoC5/ADC.c **** *  conversions with ADC_StartConvert().
 325:Generated_Source\PSoC5/ADC.c **** *  If you decide not to stop conversions before calling this API, you
 326:Generated_Source\PSoC5/ADC.c **** *  should use ADC_IsEndConversion() to wait until conversion is complete
 327:Generated_Source\PSoC5/ADC.c **** *  before changing the resolution.
 328:Generated_Source\PSoC5/ADC.c **** *  If you call ADC_SetResolution() during a conversion, the resolution will
 329:Generated_Source\PSoC5/ADC.c **** *  not be changed until the current conversion is complete. Data will not be
 330:Generated_Source\PSoC5/ADC.c **** *  available in the new resolution for another 6 + "New Resolution(in bits)"
 331:Generated_Source\PSoC5/ADC.c **** *  clock cycles.
 332:Generated_Source\PSoC5/ADC.c **** *  You may need add a delay of this number of clock cycles after
 333:Generated_Source\PSoC5/ADC.c **** *  ADC_SetResolution() is called before data is valid again.
 334:Generated_Source\PSoC5/ADC.c **** *  Affects ADC_CountsTo_Volts(), ADC_CountsTo_mVolts(), and
 335:Generated_Source\PSoC5/ADC.c **** *  ADC_CountsTo_uVolts() by calculating the correct conversion between ADC
 336:Generated_Source\PSoC5/ADC.c **** *  counts and the applied input voltage. Calculation depends on resolution,
 337:Generated_Source\PSoC5/ADC.c **** *  input range, and voltage reference.
 338:Generated_Source\PSoC5/ADC.c **** *
 339:Generated_Source\PSoC5/ADC.c **** *******************************************************************************/
 340:Generated_Source\PSoC5/ADC.c **** void ADC_SetResolution(uint8 resolution)
 341:Generated_Source\PSoC5/ADC.c **** {
 428              		.loc 1 341 0
 429              		.cfi_startproc
 430              		@ args = 0, pretend = 0, frame = 16
 431              		@ frame_needed = 1, uses_anonymous_args = 0
 432 0000 80B5     		push	{r7, lr}
 433              		.cfi_def_cfa_offset 8
 434              		.cfi_offset 7, -8
 435              		.cfi_offset 14, -4
 436 0002 84B0     		sub	sp, sp, #16
 437              		.cfi_def_cfa_offset 24
 438 0004 00AF     		add	r7, sp, #0
 439              		.cfi_def_cfa_register 7
 440 0006 0346     		mov	r3, r0
 441 0008 FB71     		strb	r3, [r7, #7]
 342:Generated_Source\PSoC5/ADC.c ****     uint8 tmpReg;
 343:Generated_Source\PSoC5/ADC.c **** 
 344:Generated_Source\PSoC5/ADC.c ****     /* Set SAR ADC resolution and sample width: 18 conversion cycles at 12bits + 1 gap */
 345:Generated_Source\PSoC5/ADC.c ****     switch (resolution)
 442              		.loc 1 345 0
 443 000a FB79     		ldrb	r3, [r7, #7]	@ zero_extendqisi2
 444 000c 0A2B     		cmp	r3, #10
 445 000e 07D0     		beq	.L19
 446 0010 0C2B     		cmp	r3, #12
 447 0012 02D0     		beq	.L20
 448 0014 082B     		cmp	r3, #8
 449 0016 06D0     		beq	.L21
 450 0018 08E0     		b	.L23
 451              	.L20:
 346:Generated_Source\PSoC5/ADC.c ****     {
 347:Generated_Source\PSoC5/ADC.c ****         case (uint8)ADC__BITS_12:
ARM GAS  C:\Users\pearlstl\AppData\Local\Temp\ccGCqMEt.s 			page 15


 348:Generated_Source\PSoC5/ADC.c ****             tmpReg = ADC_SAR_RESOLUTION_12BIT | ADC_SAR_SAMPLE_WIDTH;
 452              		.loc 1 348 0
 453 001a C223     		movs	r3, #194
 454 001c FB73     		strb	r3, [r7, #15]
 349:Generated_Source\PSoC5/ADC.c ****             break;
 455              		.loc 1 349 0
 456 001e 0BE0     		b	.L22
 457              	.L19:
 350:Generated_Source\PSoC5/ADC.c ****         case (uint8)ADC__BITS_10:
 351:Generated_Source\PSoC5/ADC.c ****             tmpReg = ADC_SAR_RESOLUTION_10BIT | ADC_SAR_SAMPLE_WIDTH;
 458              		.loc 1 351 0
 459 0020 8223     		movs	r3, #130
 460 0022 FB73     		strb	r3, [r7, #15]
 352:Generated_Source\PSoC5/ADC.c ****             break;
 461              		.loc 1 352 0
 462 0024 08E0     		b	.L22
 463              	.L21:
 353:Generated_Source\PSoC5/ADC.c ****         case (uint8)ADC__BITS_8:
 354:Generated_Source\PSoC5/ADC.c ****             tmpReg = ADC_SAR_RESOLUTION_8BIT | ADC_SAR_SAMPLE_WIDTH;
 464              		.loc 1 354 0
 465 0026 4223     		movs	r3, #66
 466 0028 FB73     		strb	r3, [r7, #15]
 355:Generated_Source\PSoC5/ADC.c ****             break;
 467              		.loc 1 355 0
 468 002a 05E0     		b	.L22
 469              	.L23:
 356:Generated_Source\PSoC5/ADC.c ****         default:
 357:Generated_Source\PSoC5/ADC.c ****             tmpReg = ADC_SAR_RESOLUTION_12BIT | ADC_SAR_SAMPLE_WIDTH;
 470              		.loc 1 357 0
 471 002c C223     		movs	r3, #194
 472 002e FB73     		strb	r3, [r7, #15]
 358:Generated_Source\PSoC5/ADC.c ****             /* Halt CPU in debug mode if resolution is out of valid range */
 359:Generated_Source\PSoC5/ADC.c ****             CYASSERT(0u != 0u);
 473              		.loc 1 359 0
 474 0030 0020     		movs	r0, #0
 475 0032 FFF7FEFF 		bl	CyHalt
 360:Generated_Source\PSoC5/ADC.c ****             break;
 476              		.loc 1 360 0
 477 0036 00BF     		nop
 478              	.L22:
 361:Generated_Source\PSoC5/ADC.c ****     }
 362:Generated_Source\PSoC5/ADC.c ****     ADC_SAR_CSR2_REG = tmpReg;
 479              		.loc 1 362 0
 480 0038 054A     		ldr	r2, .L24
 481 003a FB7B     		ldrb	r3, [r7, #15]
 482 003c 1370     		strb	r3, [r2]
 363:Generated_Source\PSoC5/ADC.c **** 
 364:Generated_Source\PSoC5/ADC.c ****      /* Calculate gain for convert counts to volts */
 365:Generated_Source\PSoC5/ADC.c ****     ADC_CalcGain(resolution);
 483              		.loc 1 365 0
 484 003e FB79     		ldrb	r3, [r7, #7]	@ zero_extendqisi2
 485 0040 1846     		mov	r0, r3
 486 0042 FFF7FEFF 		bl	ADC_CalcGain
 366:Generated_Source\PSoC5/ADC.c **** }
 487              		.loc 1 366 0
 488 0046 00BF     		nop
 489 0048 1037     		adds	r7, r7, #16
ARM GAS  C:\Users\pearlstl\AppData\Local\Temp\ccGCqMEt.s 			page 16


 490              		.cfi_def_cfa_offset 8
 491 004a BD46     		mov	sp, r7
 492              		.cfi_def_cfa_register 13
 493              		@ sp needed
 494 004c 80BD     		pop	{r7, pc}
 495              	.L25:
 496 004e 00BF     		.align	2
 497              	.L24:
 498 0050 02590040 		.word	1073764610
 499              		.cfi_endproc
 500              	.LFE5:
 501              		.size	ADC_SetResolution, .-ADC_SetResolution
 502              		.section	.text.ADC_IsEndConversion,"ax",%progbits
 503              		.align	2
 504              		.global	ADC_IsEndConversion
 505              		.thumb
 506              		.thumb_func
 507              		.type	ADC_IsEndConversion, %function
 508              	ADC_IsEndConversion:
 509              	.LFB6:
 367:Generated_Source\PSoC5/ADC.c **** 
 368:Generated_Source\PSoC5/ADC.c **** 
 369:Generated_Source\PSoC5/ADC.c **** #if(ADC_DEFAULT_CONV_MODE != ADC__HARDWARE_TRIGGER)
 370:Generated_Source\PSoC5/ADC.c **** 
 371:Generated_Source\PSoC5/ADC.c **** 
 372:Generated_Source\PSoC5/ADC.c ****     /*******************************************************************************
 373:Generated_Source\PSoC5/ADC.c ****     * Function Name: ADC_StartConvert
 374:Generated_Source\PSoC5/ADC.c ****     ********************************************************************************
 375:Generated_Source\PSoC5/ADC.c ****     *
 376:Generated_Source\PSoC5/ADC.c ****     * Summary:
 377:Generated_Source\PSoC5/ADC.c ****     *  Forces the ADC to initiate a conversion. In free-running mode, the ADC runs
 378:Generated_Source\PSoC5/ADC.c ****     *  continuously. In software trigger mode, the function also acts as a software
 379:Generated_Source\PSoC5/ADC.c ****     *  version of the SOC and every conversion must be triggered by
 380:Generated_Source\PSoC5/ADC.c ****     *  ADC_StartConvert(). This function is not available when the
 381:Generated_Source\PSoC5/ADC.c ****     *  Hardware Trigger sample mode is selected.
 382:Generated_Source\PSoC5/ADC.c ****     *
 383:Generated_Source\PSoC5/ADC.c ****     * Parameters:
 384:Generated_Source\PSoC5/ADC.c ****     *  None.
 385:Generated_Source\PSoC5/ADC.c ****     *
 386:Generated_Source\PSoC5/ADC.c ****     * Return:
 387:Generated_Source\PSoC5/ADC.c ****     *  None.
 388:Generated_Source\PSoC5/ADC.c ****     *
 389:Generated_Source\PSoC5/ADC.c ****     * Theory:
 390:Generated_Source\PSoC5/ADC.c ****     *  Forces the ADC to initiate a conversion. In Free Running mode, the ADC will
 391:Generated_Source\PSoC5/ADC.c ****     *  run continuously. In a software trigger mode the function also acts as a
 392:Generated_Source\PSoC5/ADC.c ****     *  software version of the SOC. Here every conversion has to be triggered by
 393:Generated_Source\PSoC5/ADC.c ****     *  the routine. This writes into the SOC bit in SAR_CTRL reg.
 394:Generated_Source\PSoC5/ADC.c ****     *
 395:Generated_Source\PSoC5/ADC.c ****     * Side Effects:
 396:Generated_Source\PSoC5/ADC.c ****     *  In a software trigger mode the function switches source for SOF from the
 397:Generated_Source\PSoC5/ADC.c ****     *  external pin to the internal SOF generation. Application should not call
 398:Generated_Source\PSoC5/ADC.c ****     *  StartConvert if external source used for SOF.
 399:Generated_Source\PSoC5/ADC.c ****     *
 400:Generated_Source\PSoC5/ADC.c ****     *******************************************************************************/
 401:Generated_Source\PSoC5/ADC.c ****     void ADC_StartConvert(void)
 402:Generated_Source\PSoC5/ADC.c ****     {
 403:Generated_Source\PSoC5/ADC.c ****         #if(ADC_DEFAULT_CONV_MODE != ADC__FREE_RUNNING)  /* If software triggered mode */
ARM GAS  C:\Users\pearlstl\AppData\Local\Temp\ccGCqMEt.s 			page 17


 404:Generated_Source\PSoC5/ADC.c ****             ADC_SAR_CSR0_REG &= (uint8)~ADC_SAR_MX_SOF_UDB;   /* source: SOF bit */
 405:Generated_Source\PSoC5/ADC.c ****         #endif /* End ADC_DEFAULT_CONV_MODE */
 406:Generated_Source\PSoC5/ADC.c **** 
 407:Generated_Source\PSoC5/ADC.c ****         /* Start the conversion */
 408:Generated_Source\PSoC5/ADC.c ****         ADC_SAR_CSR0_REG |= ADC_SAR_SOF_START_CONV;
 409:Generated_Source\PSoC5/ADC.c ****     }
 410:Generated_Source\PSoC5/ADC.c **** 
 411:Generated_Source\PSoC5/ADC.c **** 
 412:Generated_Source\PSoC5/ADC.c ****     /*******************************************************************************
 413:Generated_Source\PSoC5/ADC.c ****     * Function Name: ADC_StopConvert
 414:Generated_Source\PSoC5/ADC.c ****     ********************************************************************************
 415:Generated_Source\PSoC5/ADC.c ****     *
 416:Generated_Source\PSoC5/ADC.c ****     * Summary:
 417:Generated_Source\PSoC5/ADC.c ****     *  Forces the ADC to stop conversions. If a conversion is currently executing,
 418:Generated_Source\PSoC5/ADC.c ****     *  that conversion will complete, but no further conversions will occur. This
 419:Generated_Source\PSoC5/ADC.c ****     *  function is not available when the Hardware Trigger sample mode is selected.
 420:Generated_Source\PSoC5/ADC.c ****     *
 421:Generated_Source\PSoC5/ADC.c ****     * Parameters:
 422:Generated_Source\PSoC5/ADC.c ****     *  None.
 423:Generated_Source\PSoC5/ADC.c ****     *
 424:Generated_Source\PSoC5/ADC.c ****     * Return:
 425:Generated_Source\PSoC5/ADC.c ****     *  None.
 426:Generated_Source\PSoC5/ADC.c ****     *
 427:Generated_Source\PSoC5/ADC.c ****     * Theory:
 428:Generated_Source\PSoC5/ADC.c ****     *  Stops ADC conversion in Free Running mode.
 429:Generated_Source\PSoC5/ADC.c ****     *
 430:Generated_Source\PSoC5/ADC.c ****     * Side Effects:
 431:Generated_Source\PSoC5/ADC.c ****     *  In Software Trigger sample mode, this function sets a software version of the
 432:Generated_Source\PSoC5/ADC.c ****     *  SOC to low level and switches the SOC source to hardware SOC input.
 433:Generated_Source\PSoC5/ADC.c ****     *
 434:Generated_Source\PSoC5/ADC.c ****     *******************************************************************************/
 435:Generated_Source\PSoC5/ADC.c ****     void ADC_StopConvert(void)
 436:Generated_Source\PSoC5/ADC.c ****     {
 437:Generated_Source\PSoC5/ADC.c ****         /* Stop all conversions */
 438:Generated_Source\PSoC5/ADC.c ****         ADC_SAR_CSR0_REG &= (uint8)~ADC_SAR_SOF_START_CONV;
 439:Generated_Source\PSoC5/ADC.c **** 
 440:Generated_Source\PSoC5/ADC.c ****         #if(ADC_DEFAULT_CONV_MODE != ADC__FREE_RUNNING)  /* If software triggered mode */
 441:Generated_Source\PSoC5/ADC.c ****             /* Return source to UDB for hardware SOF signal */
 442:Generated_Source\PSoC5/ADC.c ****             ADC_SAR_CSR0_REG |= ADC_SAR_MX_SOF_UDB;    /* source: UDB */
 443:Generated_Source\PSoC5/ADC.c ****         #endif /* End ADC_DEFAULT_CONV_MODE */
 444:Generated_Source\PSoC5/ADC.c **** 
 445:Generated_Source\PSoC5/ADC.c ****     }
 446:Generated_Source\PSoC5/ADC.c **** 
 447:Generated_Source\PSoC5/ADC.c **** #endif /* End ADC_DEFAULT_CONV_MODE != ADC__HARDWARE_TRIGGER */
 448:Generated_Source\PSoC5/ADC.c **** 
 449:Generated_Source\PSoC5/ADC.c **** 
 450:Generated_Source\PSoC5/ADC.c **** /*******************************************************************************
 451:Generated_Source\PSoC5/ADC.c **** * Function Name: ADC_IsEndConversion
 452:Generated_Source\PSoC5/ADC.c **** ********************************************************************************
 453:Generated_Source\PSoC5/ADC.c **** *
 454:Generated_Source\PSoC5/ADC.c **** * Summary:
 455:Generated_Source\PSoC5/ADC.c **** *  Immediately returns the status of the conversion or does not return
 456:Generated_Source\PSoC5/ADC.c **** *  (blocking) until the conversion completes, depending on the retMode
 457:Generated_Source\PSoC5/ADC.c **** *  parameter.
 458:Generated_Source\PSoC5/ADC.c **** *
 459:Generated_Source\PSoC5/ADC.c **** * Parameters:
 460:Generated_Source\PSoC5/ADC.c **** *  retMode:  Check conversion return mode.
ARM GAS  C:\Users\pearlstl\AppData\Local\Temp\ccGCqMEt.s 			page 18


 461:Generated_Source\PSoC5/ADC.c **** *   ADC_RETURN_STATUS: Immediately returns the status. If the
 462:Generated_Source\PSoC5/ADC.c **** *     value returned is zero, the conversion is not complete, and this function
 463:Generated_Source\PSoC5/ADC.c **** *     should be retried until a nonzero result is returned.
 464:Generated_Source\PSoC5/ADC.c **** *   ADC_WAIT_FOR_RESULT: Does not return a result until the ADC
 465:Generated_Source\PSoC5/ADC.c **** *     conversion is complete.
 466:Generated_Source\PSoC5/ADC.c **** *
 467:Generated_Source\PSoC5/ADC.c **** * Return:
 468:Generated_Source\PSoC5/ADC.c **** *  (uint8)  0 =>  The ADC is still calculating the last result.
 469:Generated_Source\PSoC5/ADC.c **** *           1 =>  The last conversion is complete.
 470:Generated_Source\PSoC5/ADC.c **** *
 471:Generated_Source\PSoC5/ADC.c **** * Side Effects:
 472:Generated_Source\PSoC5/ADC.c **** *  This function reads the end of conversion status, which is cleared on read.
 473:Generated_Source\PSoC5/ADC.c **** *
 474:Generated_Source\PSoC5/ADC.c **** *******************************************************************************/
 475:Generated_Source\PSoC5/ADC.c **** uint8 ADC_IsEndConversion(uint8 retMode)
 476:Generated_Source\PSoC5/ADC.c **** {
 510              		.loc 1 476 0
 511              		.cfi_startproc
 512              		@ args = 0, pretend = 0, frame = 16
 513              		@ frame_needed = 1, uses_anonymous_args = 0
 514 0000 80B5     		push	{r7, lr}
 515              		.cfi_def_cfa_offset 8
 516              		.cfi_offset 7, -8
 517              		.cfi_offset 14, -4
 518 0002 84B0     		sub	sp, sp, #16
 519              		.cfi_def_cfa_offset 24
 520 0004 00AF     		add	r7, sp, #0
 521              		.cfi_def_cfa_register 7
 522 0006 0346     		mov	r3, r0
 523 0008 FB71     		strb	r3, [r7, #7]
 524              	.L28:
 477:Generated_Source\PSoC5/ADC.c ****     uint8 status;
 478:Generated_Source\PSoC5/ADC.c **** 
 479:Generated_Source\PSoC5/ADC.c ****     do
 480:Generated_Source\PSoC5/ADC.c ****     {
 481:Generated_Source\PSoC5/ADC.c ****         status = ADC_SAR_CSR1_REG & ADC_SAR_EOF_1;
 525              		.loc 1 481 0 discriminator 2
 526 000a 0C4B     		ldr	r3, .L31
 527 000c 1B78     		ldrb	r3, [r3]
 528 000e DBB2     		uxtb	r3, r3
 529 0010 03F00103 		and	r3, r3, #1
 530 0014 FB73     		strb	r3, [r7, #15]
 482:Generated_Source\PSoC5/ADC.c ****     } while ((status != ADC_SAR_EOF_1) && (retMode == ADC_WAIT_FOR_RESULT));
 531              		.loc 1 482 0 discriminator 2
 532 0016 FB7B     		ldrb	r3, [r7, #15]	@ zero_extendqisi2
 533 0018 012B     		cmp	r3, #1
 534 001a 02D0     		beq	.L27
 535              		.loc 1 482 0 is_stmt 0 discriminator 1
 536 001c FB79     		ldrb	r3, [r7, #7]	@ zero_extendqisi2
 537 001e 002B     		cmp	r3, #0
 538 0020 F3D0     		beq	.L28
 539              	.L27:
 483:Generated_Source\PSoC5/ADC.c ****     /* If convertion complete, wait until EOF bit released */
 484:Generated_Source\PSoC5/ADC.c ****     if(status == ADC_SAR_EOF_1)
 540              		.loc 1 484 0 is_stmt 1
 541 0022 FB7B     		ldrb	r3, [r7, #15]	@ zero_extendqisi2
 542 0024 012B     		cmp	r3, #1
ARM GAS  C:\Users\pearlstl\AppData\Local\Temp\ccGCqMEt.s 			page 19


 543 0026 04D1     		bne	.L29
 485:Generated_Source\PSoC5/ADC.c ****     {
 486:Generated_Source\PSoC5/ADC.c ****         /* wait one ADC clock to let the EOC status bit release */
 487:Generated_Source\PSoC5/ADC.c ****         CyDelayUs(1u);
 544              		.loc 1 487 0
 545 0028 0120     		movs	r0, #1
 546 002a FFF7FEFF 		bl	CyDelayUs
 488:Generated_Source\PSoC5/ADC.c ****         /* Do the unconditional read operation of the CSR1 register to make sure the EOC bit has be
 489:Generated_Source\PSoC5/ADC.c ****         CY_GET_REG8(ADC_SAR_CSR1_PTR);
 547              		.loc 1 489 0
 548 002e 034B     		ldr	r3, .L31
 549 0030 1B78     		ldrb	r3, [r3]
 550              	.L29:
 490:Generated_Source\PSoC5/ADC.c ****     }
 491:Generated_Source\PSoC5/ADC.c **** 
 492:Generated_Source\PSoC5/ADC.c ****     return(status);
 551              		.loc 1 492 0
 552 0032 FB7B     		ldrb	r3, [r7, #15]	@ zero_extendqisi2
 493:Generated_Source\PSoC5/ADC.c **** }
 553              		.loc 1 493 0
 554 0034 1846     		mov	r0, r3
 555 0036 1037     		adds	r7, r7, #16
 556              		.cfi_def_cfa_offset 8
 557 0038 BD46     		mov	sp, r7
 558              		.cfi_def_cfa_register 13
 559              		@ sp needed
 560 003a 80BD     		pop	{r7, pc}
 561              	.L32:
 562              		.align	2
 563              	.L31:
 564 003c 01590040 		.word	1073764609
 565              		.cfi_endproc
 566              	.LFE6:
 567              		.size	ADC_IsEndConversion, .-ADC_IsEndConversion
 568              		.section	.text.ADC_GetResult8,"ax",%progbits
 569              		.align	2
 570              		.global	ADC_GetResult8
 571              		.thumb
 572              		.thumb_func
 573              		.type	ADC_GetResult8, %function
 574              	ADC_GetResult8:
 575              	.LFB7:
 494:Generated_Source\PSoC5/ADC.c **** 
 495:Generated_Source\PSoC5/ADC.c **** 
 496:Generated_Source\PSoC5/ADC.c **** /*******************************************************************************
 497:Generated_Source\PSoC5/ADC.c **** * Function Name: ADC_GetResult8
 498:Generated_Source\PSoC5/ADC.c **** ********************************************************************************
 499:Generated_Source\PSoC5/ADC.c **** *
 500:Generated_Source\PSoC5/ADC.c **** * Summary:
 501:Generated_Source\PSoC5/ADC.c **** *  Returns the result of an 8-bit conversion. If the resolution is set greater
 502:Generated_Source\PSoC5/ADC.c **** *  than 8 bits, the function returns the LSB of the result.
 503:Generated_Source\PSoC5/ADC.c **** *  ADC_IsEndConversion() should be called to verify that the data
 504:Generated_Source\PSoC5/ADC.c **** *   sample is ready.
 505:Generated_Source\PSoC5/ADC.c **** *
 506:Generated_Source\PSoC5/ADC.c **** * Parameters:
 507:Generated_Source\PSoC5/ADC.c **** *  None.
 508:Generated_Source\PSoC5/ADC.c **** *
ARM GAS  C:\Users\pearlstl\AppData\Local\Temp\ccGCqMEt.s 			page 20


 509:Generated_Source\PSoC5/ADC.c **** * Return:
 510:Generated_Source\PSoC5/ADC.c **** *  The LSB of the last ADC conversion.
 511:Generated_Source\PSoC5/ADC.c **** *
 512:Generated_Source\PSoC5/ADC.c **** * Global Variables:
 513:Generated_Source\PSoC5/ADC.c **** *  ADC_shift - used to convert the ADC counts to the 2s
 514:Generated_Source\PSoC5/ADC.c **** *  compliment form.
 515:Generated_Source\PSoC5/ADC.c **** *
 516:Generated_Source\PSoC5/ADC.c **** * Side Effects:
 517:Generated_Source\PSoC5/ADC.c **** *  Converts the ADC counts to the 2s complement form.
 518:Generated_Source\PSoC5/ADC.c **** *
 519:Generated_Source\PSoC5/ADC.c **** *******************************************************************************/
 520:Generated_Source\PSoC5/ADC.c **** int8 ADC_GetResult8( void )
 521:Generated_Source\PSoC5/ADC.c **** {
 576              		.loc 1 521 0
 577              		.cfi_startproc
 578              		@ args = 0, pretend = 0, frame = 0
 579              		@ frame_needed = 1, uses_anonymous_args = 0
 580              		@ link register save eliminated.
 581 0000 80B4     		push	{r7}
 582              		.cfi_def_cfa_offset 4
 583              		.cfi_offset 7, -4
 584 0002 00AF     		add	r7, sp, #0
 585              		.cfi_def_cfa_register 7
 522:Generated_Source\PSoC5/ADC.c ****     return( (int8)ADC_SAR_WRK0_REG - (int8)ADC_shift);
 586              		.loc 1 522 0
 587 0004 064B     		ldr	r3, .L35
 588 0006 1B78     		ldrb	r3, [r3]
 589 0008 DAB2     		uxtb	r2, r3
 590 000a 064B     		ldr	r3, .L35+4
 591 000c 1B88     		ldrh	r3, [r3]	@ movhi
 592 000e 1BB2     		sxth	r3, r3
 593 0010 DBB2     		uxtb	r3, r3
 594 0012 D31A     		subs	r3, r2, r3
 595 0014 DBB2     		uxtb	r3, r3
 596 0016 5BB2     		sxtb	r3, r3
 523:Generated_Source\PSoC5/ADC.c **** }
 597              		.loc 1 523 0
 598 0018 1846     		mov	r0, r3
 599 001a BD46     		mov	sp, r7
 600              		.cfi_def_cfa_register 13
 601              		@ sp needed
 602 001c 80BC     		pop	{r7}
 603              		.cfi_restore 7
 604              		.cfi_def_cfa_offset 0
 605 001e 7047     		bx	lr
 606              	.L36:
 607              		.align	2
 608              	.L35:
 609 0020 A05B0040 		.word	1073765280
 610 0024 00000000 		.word	ADC_shift
 611              		.cfi_endproc
 612              	.LFE7:
 613              		.size	ADC_GetResult8, .-ADC_GetResult8
 614              		.section	.text.ADC_GetResult16,"ax",%progbits
 615              		.align	2
 616              		.global	ADC_GetResult16
 617              		.thumb
ARM GAS  C:\Users\pearlstl\AppData\Local\Temp\ccGCqMEt.s 			page 21


 618              		.thumb_func
 619              		.type	ADC_GetResult16, %function
 620              	ADC_GetResult16:
 621              	.LFB8:
 524:Generated_Source\PSoC5/ADC.c **** 
 525:Generated_Source\PSoC5/ADC.c **** 
 526:Generated_Source\PSoC5/ADC.c **** /*******************************************************************************
 527:Generated_Source\PSoC5/ADC.c **** * Function Name: ADC_GetResult16
 528:Generated_Source\PSoC5/ADC.c **** ********************************************************************************
 529:Generated_Source\PSoC5/ADC.c **** *
 530:Generated_Source\PSoC5/ADC.c **** * Summary:
 531:Generated_Source\PSoC5/ADC.c **** *  Returns a 16-bit result for a conversion with a result that has a resolution
 532:Generated_Source\PSoC5/ADC.c **** *  of 8 to 12 bits.
 533:Generated_Source\PSoC5/ADC.c **** *  ADC_IsEndConversion() should be called to verify that the data
 534:Generated_Source\PSoC5/ADC.c **** *   sample is ready
 535:Generated_Source\PSoC5/ADC.c **** *
 536:Generated_Source\PSoC5/ADC.c **** * Parameters:
 537:Generated_Source\PSoC5/ADC.c **** *  None.
 538:Generated_Source\PSoC5/ADC.c **** *
 539:Generated_Source\PSoC5/ADC.c **** * Return:
 540:Generated_Source\PSoC5/ADC.c **** *  The 16-bit result of the last ADC conversion
 541:Generated_Source\PSoC5/ADC.c **** *
 542:Generated_Source\PSoC5/ADC.c **** * Global Variables:
 543:Generated_Source\PSoC5/ADC.c **** *  ADC_shift - used to convert the ADC counts to the 2s
 544:Generated_Source\PSoC5/ADC.c **** *  compliment form.
 545:Generated_Source\PSoC5/ADC.c **** *
 546:Generated_Source\PSoC5/ADC.c **** * Side Effects:
 547:Generated_Source\PSoC5/ADC.c **** *  Converts the ADC counts to the 2s complement form.
 548:Generated_Source\PSoC5/ADC.c **** *
 549:Generated_Source\PSoC5/ADC.c **** *******************************************************************************/
 550:Generated_Source\PSoC5/ADC.c **** int16 ADC_GetResult16( void )
 551:Generated_Source\PSoC5/ADC.c **** {
 622              		.loc 1 551 0
 623              		.cfi_startproc
 624              		@ args = 0, pretend = 0, frame = 8
 625              		@ frame_needed = 1, uses_anonymous_args = 0
 626              		@ link register save eliminated.
 627 0000 80B4     		push	{r7}
 628              		.cfi_def_cfa_offset 4
 629              		.cfi_offset 7, -4
 630 0002 83B0     		sub	sp, sp, #12
 631              		.cfi_def_cfa_offset 16
 632 0004 00AF     		add	r7, sp, #0
 633              		.cfi_def_cfa_register 7
 552:Generated_Source\PSoC5/ADC.c ****     uint16 res;
 553:Generated_Source\PSoC5/ADC.c **** 
 554:Generated_Source\PSoC5/ADC.c ****     res = CY_GET_REG16(ADC_SAR_WRK_PTR);
 634              		.loc 1 554 0
 635 0006 084B     		ldr	r3, .L39
 636 0008 1B88     		ldrh	r3, [r3]	@ movhi
 637 000a FB80     		strh	r3, [r7, #6]	@ movhi
 555:Generated_Source\PSoC5/ADC.c **** 
 556:Generated_Source\PSoC5/ADC.c ****     return( (int16)res - ADC_shift );
 638              		.loc 1 556 0
 639 000c 074B     		ldr	r3, .L39+4
 640 000e 1B88     		ldrh	r3, [r3]	@ movhi
 641 0010 1BB2     		sxth	r3, r3
ARM GAS  C:\Users\pearlstl\AppData\Local\Temp\ccGCqMEt.s 			page 22


 642 0012 9BB2     		uxth	r3, r3
 643 0014 FA88     		ldrh	r2, [r7, #6]	@ movhi
 644 0016 D31A     		subs	r3, r2, r3
 645 0018 9BB2     		uxth	r3, r3
 646 001a 1BB2     		sxth	r3, r3
 557:Generated_Source\PSoC5/ADC.c **** }
 647              		.loc 1 557 0
 648 001c 1846     		mov	r0, r3
 649 001e 0C37     		adds	r7, r7, #12
 650              		.cfi_def_cfa_offset 4
 651 0020 BD46     		mov	sp, r7
 652              		.cfi_def_cfa_register 13
 653              		@ sp needed
 654 0022 80BC     		pop	{r7}
 655              		.cfi_restore 7
 656              		.cfi_def_cfa_offset 0
 657 0024 7047     		bx	lr
 658              	.L40:
 659 0026 00BF     		.align	2
 660              	.L39:
 661 0028 A05B0040 		.word	1073765280
 662 002c 00000000 		.word	ADC_shift
 663              		.cfi_endproc
 664              	.LFE8:
 665              		.size	ADC_GetResult16, .-ADC_GetResult16
 666              		.section	.text.ADC_SetOffset,"ax",%progbits
 667              		.align	2
 668              		.global	ADC_SetOffset
 669              		.thumb
 670              		.thumb_func
 671              		.type	ADC_SetOffset, %function
 672              	ADC_SetOffset:
 673              	.LFB9:
 558:Generated_Source\PSoC5/ADC.c **** 
 559:Generated_Source\PSoC5/ADC.c **** 
 560:Generated_Source\PSoC5/ADC.c **** /*******************************************************************************
 561:Generated_Source\PSoC5/ADC.c **** * Function Name: ADC_SetOffset
 562:Generated_Source\PSoC5/ADC.c **** ********************************************************************************
 563:Generated_Source\PSoC5/ADC.c **** *
 564:Generated_Source\PSoC5/ADC.c **** * Summary:
 565:Generated_Source\PSoC5/ADC.c **** *  Sets the ADC offset, which is used by ADC_CountsTo_Volts(),
 566:Generated_Source\PSoC5/ADC.c **** *  ADC_CountsTo_mVolts(), and ADC_CountsTo_uVolts()
 567:Generated_Source\PSoC5/ADC.c **** *  to subtract the offset from the given reading before calculating the voltage
 568:Generated_Source\PSoC5/ADC.c **** *  conversion.
 569:Generated_Source\PSoC5/ADC.c **** *
 570:Generated_Source\PSoC5/ADC.c **** * Parameters:
 571:Generated_Source\PSoC5/ADC.c **** *  int16: This value is measured when the inputs are shorted or connected to
 572:Generated_Source\PSoC5/ADC.c ****    the same input voltage.
 573:Generated_Source\PSoC5/ADC.c **** *
 574:Generated_Source\PSoC5/ADC.c **** * Return:
 575:Generated_Source\PSoC5/ADC.c **** *  None.
 576:Generated_Source\PSoC5/ADC.c **** *
 577:Generated_Source\PSoC5/ADC.c **** * Global Variables:
 578:Generated_Source\PSoC5/ADC.c **** *  The ADC_offset variable modified. This variable is used for
 579:Generated_Source\PSoC5/ADC.c **** *  offset calibration purpose.
 580:Generated_Source\PSoC5/ADC.c **** *  Affects the ADC_CountsTo_Volts,
 581:Generated_Source\PSoC5/ADC.c **** *  ADC_CountsTo_mVolts, ADC_CountsTo_uVolts functions
ARM GAS  C:\Users\pearlstl\AppData\Local\Temp\ccGCqMEt.s 			page 23


 582:Generated_Source\PSoC5/ADC.c **** *  by subtracting the given offset.
 583:Generated_Source\PSoC5/ADC.c **** *
 584:Generated_Source\PSoC5/ADC.c **** *******************************************************************************/
 585:Generated_Source\PSoC5/ADC.c **** void ADC_SetOffset(int16 offset)
 586:Generated_Source\PSoC5/ADC.c **** {
 674              		.loc 1 586 0
 675              		.cfi_startproc
 676              		@ args = 0, pretend = 0, frame = 8
 677              		@ frame_needed = 1, uses_anonymous_args = 0
 678              		@ link register save eliminated.
 679 0000 80B4     		push	{r7}
 680              		.cfi_def_cfa_offset 4
 681              		.cfi_offset 7, -4
 682 0002 83B0     		sub	sp, sp, #12
 683              		.cfi_def_cfa_offset 16
 684 0004 00AF     		add	r7, sp, #0
 685              		.cfi_def_cfa_register 7
 686 0006 0346     		mov	r3, r0
 687 0008 FB80     		strh	r3, [r7, #6]	@ movhi
 587:Generated_Source\PSoC5/ADC.c ****     ADC_offset = offset;
 688              		.loc 1 587 0
 689 000a 044A     		ldr	r2, .L42
 690 000c FB88     		ldrh	r3, [r7, #6]	@ movhi
 691 000e 1380     		strh	r3, [r2]	@ movhi
 588:Generated_Source\PSoC5/ADC.c **** }
 692              		.loc 1 588 0
 693 0010 00BF     		nop
 694 0012 0C37     		adds	r7, r7, #12
 695              		.cfi_def_cfa_offset 4
 696 0014 BD46     		mov	sp, r7
 697              		.cfi_def_cfa_register 13
 698              		@ sp needed
 699 0016 80BC     		pop	{r7}
 700              		.cfi_restore 7
 701              		.cfi_def_cfa_offset 0
 702 0018 7047     		bx	lr
 703              	.L43:
 704 001a 00BF     		.align	2
 705              	.L42:
 706 001c 00000000 		.word	ADC_offset
 707              		.cfi_endproc
 708              	.LFE9:
 709              		.size	ADC_SetOffset, .-ADC_SetOffset
 710              		.section	.text.ADC_CalcGain,"ax",%progbits
 711              		.align	2
 712              		.thumb
 713              		.thumb_func
 714              		.type	ADC_CalcGain, %function
 715              	ADC_CalcGain:
 716              	.LFB10:
 589:Generated_Source\PSoC5/ADC.c **** 
 590:Generated_Source\PSoC5/ADC.c **** 
 591:Generated_Source\PSoC5/ADC.c **** /*******************************************************************************
 592:Generated_Source\PSoC5/ADC.c **** * Function Name: ADC_CalcGain
 593:Generated_Source\PSoC5/ADC.c **** ********************************************************************************
 594:Generated_Source\PSoC5/ADC.c **** *
 595:Generated_Source\PSoC5/ADC.c **** * Summary:
ARM GAS  C:\Users\pearlstl\AppData\Local\Temp\ccGCqMEt.s 			page 24


 596:Generated_Source\PSoC5/ADC.c **** *  This function calculates the ADC gain in counts per 10 volt.
 597:Generated_Source\PSoC5/ADC.c **** *
 598:Generated_Source\PSoC5/ADC.c **** * Parameters:
 599:Generated_Source\PSoC5/ADC.c **** *  uint8: resolution
 600:Generated_Source\PSoC5/ADC.c **** *
 601:Generated_Source\PSoC5/ADC.c **** * Return:
 602:Generated_Source\PSoC5/ADC.c **** *  None.
 603:Generated_Source\PSoC5/ADC.c **** *
 604:Generated_Source\PSoC5/ADC.c **** * Global Variables:
 605:Generated_Source\PSoC5/ADC.c **** *  ADC_shift variable initialized. This variable is used to
 606:Generated_Source\PSoC5/ADC.c **** *  convert the ADC counts to the 2s compliment form.
 607:Generated_Source\PSoC5/ADC.c **** *  ADC_countsPer10Volt variable initialized. This variable is used
 608:Generated_Source\PSoC5/ADC.c **** *  for gain calibration purpose.
 609:Generated_Source\PSoC5/ADC.c **** *
 610:Generated_Source\PSoC5/ADC.c **** *******************************************************************************/
 611:Generated_Source\PSoC5/ADC.c **** static void ADC_CalcGain( uint8 resolution )
 612:Generated_Source\PSoC5/ADC.c **** {
 717              		.loc 1 612 0
 718              		.cfi_startproc
 719              		@ args = 0, pretend = 0, frame = 16
 720              		@ frame_needed = 1, uses_anonymous_args = 0
 721 0000 80B5     		push	{r7, lr}
 722              		.cfi_def_cfa_offset 8
 723              		.cfi_offset 7, -8
 724              		.cfi_offset 14, -4
 725 0002 84B0     		sub	sp, sp, #16
 726              		.cfi_def_cfa_offset 24
 727 0004 00AF     		add	r7, sp, #0
 728              		.cfi_def_cfa_register 7
 729 0006 0346     		mov	r3, r0
 730 0008 FB71     		strb	r3, [r7, #7]
 613:Generated_Source\PSoC5/ADC.c ****     int32 counts;
 614:Generated_Source\PSoC5/ADC.c ****     #if(!((ADC_DEFAULT_RANGE == ADC__VSS_TO_VREF) || \
 615:Generated_Source\PSoC5/ADC.c ****          (ADC_DEFAULT_RANGE == ADC__VSSA_TO_VDDA) || \
 616:Generated_Source\PSoC5/ADC.c ****          (ADC_DEFAULT_RANGE == ADC__VSSA_TO_VDAC)) )
 617:Generated_Source\PSoC5/ADC.c ****         uint16 diff_zero;
 618:Generated_Source\PSoC5/ADC.c ****     #endif /* End ADC_DEFAULT_RANGE */
 619:Generated_Source\PSoC5/ADC.c **** 
 620:Generated_Source\PSoC5/ADC.c ****     switch (resolution)
 731              		.loc 1 620 0
 732 000a FB79     		ldrb	r3, [r7, #7]	@ zero_extendqisi2
 733 000c 0A2B     		cmp	r3, #10
 734 000e 08D0     		beq	.L46
 735 0010 0C2B     		cmp	r3, #12
 736 0012 02D0     		beq	.L47
 737 0014 082B     		cmp	r3, #8
 738 0016 08D0     		beq	.L48
 739 0018 0BE0     		b	.L51
 740              	.L47:
 621:Generated_Source\PSoC5/ADC.c ****     {
 622:Generated_Source\PSoC5/ADC.c ****         case (uint8)ADC__BITS_12:
 623:Generated_Source\PSoC5/ADC.c ****             counts = (int32)ADC_SAR_WRK_MAX_12BIT;
 741              		.loc 1 623 0
 742 001a 4FF48053 		mov	r3, #4096
 743 001e FB60     		str	r3, [r7, #12]
 624:Generated_Source\PSoC5/ADC.c ****             #if(!((ADC_DEFAULT_RANGE == ADC__VSS_TO_VREF) || \
 625:Generated_Source\PSoC5/ADC.c ****                  (ADC_DEFAULT_RANGE == ADC__VSSA_TO_VDDA) || \
ARM GAS  C:\Users\pearlstl\AppData\Local\Temp\ccGCqMEt.s 			page 25


 626:Generated_Source\PSoC5/ADC.c ****                  (ADC_DEFAULT_RANGE == ADC__VSSA_TO_VDAC)) )
 627:Generated_Source\PSoC5/ADC.c ****                 diff_zero = ADC_SAR_DIFF_SHIFT;
 628:Generated_Source\PSoC5/ADC.c ****             #endif /* End ADC_DEFAULT_RANGE */
 629:Generated_Source\PSoC5/ADC.c ****             break;
 744              		.loc 1 629 0
 745 0020 0DE0     		b	.L49
 746              	.L46:
 630:Generated_Source\PSoC5/ADC.c ****         case (uint8)ADC__BITS_10:
 631:Generated_Source\PSoC5/ADC.c ****             counts = (int32)ADC_SAR_WRK_MAX_10BIT;
 747              		.loc 1 631 0
 748 0022 4FF48063 		mov	r3, #1024
 749 0026 FB60     		str	r3, [r7, #12]
 632:Generated_Source\PSoC5/ADC.c ****             #if(!((ADC_DEFAULT_RANGE == ADC__VSS_TO_VREF) || \
 633:Generated_Source\PSoC5/ADC.c ****                  (ADC_DEFAULT_RANGE == ADC__VSSA_TO_VDDA) || \
 634:Generated_Source\PSoC5/ADC.c ****                  (ADC_DEFAULT_RANGE == ADC__VSSA_TO_VDAC)) )
 635:Generated_Source\PSoC5/ADC.c ****                 diff_zero = ADC_SAR_DIFF_SHIFT >> 2u;
 636:Generated_Source\PSoC5/ADC.c ****             #endif /* End ADC_DEFAULT_RANGE */
 637:Generated_Source\PSoC5/ADC.c ****             break;
 750              		.loc 1 637 0
 751 0028 09E0     		b	.L49
 752              	.L48:
 638:Generated_Source\PSoC5/ADC.c ****         case (uint8)ADC__BITS_8:
 639:Generated_Source\PSoC5/ADC.c ****             counts = (int32)ADC_SAR_WRK_MAX_8BIT;
 753              		.loc 1 639 0
 754 002a 4FF48073 		mov	r3, #256
 755 002e FB60     		str	r3, [r7, #12]
 640:Generated_Source\PSoC5/ADC.c ****             #if(!((ADC_DEFAULT_RANGE == ADC__VSS_TO_VREF) || \
 641:Generated_Source\PSoC5/ADC.c ****                  (ADC_DEFAULT_RANGE == ADC__VSSA_TO_VDDA) || \
 642:Generated_Source\PSoC5/ADC.c ****                  (ADC_DEFAULT_RANGE == ADC__VSSA_TO_VDAC)) )
 643:Generated_Source\PSoC5/ADC.c ****                 diff_zero = ADC_SAR_DIFF_SHIFT >> 4u;
 644:Generated_Source\PSoC5/ADC.c ****             #endif /* End ADC_DEFAULT_RANGE */
 645:Generated_Source\PSoC5/ADC.c ****             break;
 756              		.loc 1 645 0
 757 0030 05E0     		b	.L49
 758              	.L51:
 646:Generated_Source\PSoC5/ADC.c ****         default: /* Halt CPU in debug mode if resolution is out of valid range */
 647:Generated_Source\PSoC5/ADC.c ****             counts = 0;
 759              		.loc 1 647 0
 760 0032 0023     		movs	r3, #0
 761 0034 FB60     		str	r3, [r7, #12]
 648:Generated_Source\PSoC5/ADC.c ****             #if(!((ADC_DEFAULT_RANGE == ADC__VSS_TO_VREF) || \
 649:Generated_Source\PSoC5/ADC.c ****                  (ADC_DEFAULT_RANGE == ADC__VSSA_TO_VDDA) || \
 650:Generated_Source\PSoC5/ADC.c ****                  (ADC_DEFAULT_RANGE == ADC__VSSA_TO_VDAC)) )
 651:Generated_Source\PSoC5/ADC.c ****                 diff_zero = 0u;
 652:Generated_Source\PSoC5/ADC.c ****             #endif /* End ADC_DEFAULT_RANGE */
 653:Generated_Source\PSoC5/ADC.c ****             CYASSERT(0u != 0u);
 762              		.loc 1 653 0
 763 0036 0020     		movs	r0, #0
 764 0038 FFF7FEFF 		bl	CyHalt
 654:Generated_Source\PSoC5/ADC.c ****             break;
 765              		.loc 1 654 0
 766 003c 00BF     		nop
 767              	.L49:
 655:Generated_Source\PSoC5/ADC.c ****     }
 656:Generated_Source\PSoC5/ADC.c ****     ADC_countsPerVolt = 0; /* Clear obsolete variable */
 768              		.loc 1 656 0
 769 003e 0C4B     		ldr	r3, .L52
ARM GAS  C:\Users\pearlstl\AppData\Local\Temp\ccGCqMEt.s 			page 26


 770 0040 0022     		movs	r2, #0
 771 0042 1A80     		strh	r2, [r3]	@ movhi
 657:Generated_Source\PSoC5/ADC.c ****     /* Calculate gain in counts per 10 volts with rounding */
 658:Generated_Source\PSoC5/ADC.c ****     ADC_countsPer10Volt = (((counts * ADC_10MV_COUNTS) +
 772              		.loc 1 658 0
 773 0044 FB68     		ldr	r3, [r7, #12]
 774 0046 42F21072 		movw	r2, #10000
 775 004a 02FB03F3 		mul	r3, r2, r3
 776 004e 03F58063 		add	r3, r3, #1024
 659:Generated_Source\PSoC5/ADC.c ****                         ADC_DEFAULT_REF_VOLTAGE_MV) / (ADC_DEFAULT_REF_VOLTAGE_MV * 2));
 777              		.loc 1 659 0
 778 0052 002B     		cmp	r3, #0
 779 0054 01DA     		bge	.L50
 780 0056 03F2FF73 		addw	r3, r3, #2047
 781              	.L50:
 782 005a DB12     		asrs	r3, r3, #11
 783 005c 1A46     		mov	r2, r3
 658:Generated_Source\PSoC5/ADC.c ****                         ADC_DEFAULT_REF_VOLTAGE_MV) / (ADC_DEFAULT_REF_VOLTAGE_MV * 2));
 784              		.loc 1 658 0
 785 005e 054B     		ldr	r3, .L52+4
 786 0060 1A60     		str	r2, [r3]
 660:Generated_Source\PSoC5/ADC.c **** 
 661:Generated_Source\PSoC5/ADC.c ****     #if( (ADC_DEFAULT_RANGE == ADC__VSS_TO_VREF) || \
 662:Generated_Source\PSoC5/ADC.c ****          (ADC_DEFAULT_RANGE == ADC__VSSA_TO_VDDA) || \
 663:Generated_Source\PSoC5/ADC.c ****          (ADC_DEFAULT_RANGE == ADC__VSSA_TO_VDAC) )
 664:Generated_Source\PSoC5/ADC.c ****         ADC_shift = 0;
 787              		.loc 1 664 0
 788 0062 054B     		ldr	r3, .L52+8
 789 0064 0022     		movs	r2, #0
 790 0066 1A80     		strh	r2, [r3]	@ movhi
 665:Generated_Source\PSoC5/ADC.c ****     #else
 666:Generated_Source\PSoC5/ADC.c ****         ADC_shift = diff_zero;
 667:Generated_Source\PSoC5/ADC.c ****     #endif /* End ADC_DEFAULT_RANGE */
 668:Generated_Source\PSoC5/ADC.c **** }
 791              		.loc 1 668 0
 792 0068 00BF     		nop
 793 006a 1037     		adds	r7, r7, #16
 794              		.cfi_def_cfa_offset 8
 795 006c BD46     		mov	sp, r7
 796              		.cfi_def_cfa_register 13
 797              		@ sp needed
 798 006e 80BD     		pop	{r7, pc}
 799              	.L53:
 800              		.align	2
 801              	.L52:
 802 0070 00000000 		.word	ADC_countsPerVolt
 803 0074 00000000 		.word	ADC_countsPer10Volt
 804 0078 00000000 		.word	ADC_shift
 805              		.cfi_endproc
 806              	.LFE10:
 807              		.size	ADC_CalcGain, .-ADC_CalcGain
 808              		.section	.text.ADC_SetGain,"ax",%progbits
 809              		.align	2
 810              		.global	ADC_SetGain
 811              		.thumb
 812              		.thumb_func
 813              		.type	ADC_SetGain, %function
ARM GAS  C:\Users\pearlstl\AppData\Local\Temp\ccGCqMEt.s 			page 27


 814              	ADC_SetGain:
 815              	.LFB11:
 669:Generated_Source\PSoC5/ADC.c **** 
 670:Generated_Source\PSoC5/ADC.c **** 
 671:Generated_Source\PSoC5/ADC.c **** /*******************************************************************************
 672:Generated_Source\PSoC5/ADC.c **** * Function Name: ADC_SetGain
 673:Generated_Source\PSoC5/ADC.c **** ********************************************************************************
 674:Generated_Source\PSoC5/ADC.c **** *
 675:Generated_Source\PSoC5/ADC.c **** * Summary:
 676:Generated_Source\PSoC5/ADC.c **** *  Sets the ADC gain in counts per volt for the voltage conversion functions
 677:Generated_Source\PSoC5/ADC.c **** *  that follow. This value is set by default by the reference and input range
 678:Generated_Source\PSoC5/ADC.c **** *  settings. It should only be used to further calibrate the ADC with a known
 679:Generated_Source\PSoC5/ADC.c **** *  input or if the ADC is using an external reference.
 680:Generated_Source\PSoC5/ADC.c **** *
 681:Generated_Source\PSoC5/ADC.c **** * Parameters:
 682:Generated_Source\PSoC5/ADC.c **** *  int16 adcGain counts per volt
 683:Generated_Source\PSoC5/ADC.c **** *
 684:Generated_Source\PSoC5/ADC.c **** * Return:
 685:Generated_Source\PSoC5/ADC.c **** *  None.
 686:Generated_Source\PSoC5/ADC.c **** *
 687:Generated_Source\PSoC5/ADC.c **** * Global Variables:
 688:Generated_Source\PSoC5/ADC.c **** *  ADC_countsPer10Volt variable modified. This variable is used
 689:Generated_Source\PSoC5/ADC.c **** *  for gain calibration purpose.
 690:Generated_Source\PSoC5/ADC.c **** *
 691:Generated_Source\PSoC5/ADC.c **** *******************************************************************************/
 692:Generated_Source\PSoC5/ADC.c **** void ADC_SetGain(int16 adcGain)
 693:Generated_Source\PSoC5/ADC.c **** {
 816              		.loc 1 693 0
 817              		.cfi_startproc
 818              		@ args = 0, pretend = 0, frame = 8
 819              		@ frame_needed = 1, uses_anonymous_args = 0
 820              		@ link register save eliminated.
 821 0000 80B4     		push	{r7}
 822              		.cfi_def_cfa_offset 4
 823              		.cfi_offset 7, -4
 824 0002 83B0     		sub	sp, sp, #12
 825              		.cfi_def_cfa_offset 16
 826 0004 00AF     		add	r7, sp, #0
 827              		.cfi_def_cfa_register 7
 828 0006 0346     		mov	r3, r0
 829 0008 FB80     		strh	r3, [r7, #6]	@ movhi
 694:Generated_Source\PSoC5/ADC.c ****     ADC_countsPer10Volt = (int32)adcGain * 10;
 830              		.loc 1 694 0
 831 000a B7F90620 		ldrsh	r2, [r7, #6]
 832 000e 1346     		mov	r3, r2
 833 0010 9B00     		lsls	r3, r3, #2
 834 0012 1344     		add	r3, r3, r2
 835 0014 5B00     		lsls	r3, r3, #1
 836 0016 1A46     		mov	r2, r3
 837 0018 034B     		ldr	r3, .L55
 838 001a 1A60     		str	r2, [r3]
 695:Generated_Source\PSoC5/ADC.c **** }
 839              		.loc 1 695 0
 840 001c 00BF     		nop
 841 001e 0C37     		adds	r7, r7, #12
 842              		.cfi_def_cfa_offset 4
 843 0020 BD46     		mov	sp, r7
ARM GAS  C:\Users\pearlstl\AppData\Local\Temp\ccGCqMEt.s 			page 28


 844              		.cfi_def_cfa_register 13
 845              		@ sp needed
 846 0022 80BC     		pop	{r7}
 847              		.cfi_restore 7
 848              		.cfi_def_cfa_offset 0
 849 0024 7047     		bx	lr
 850              	.L56:
 851 0026 00BF     		.align	2
 852              	.L55:
 853 0028 00000000 		.word	ADC_countsPer10Volt
 854              		.cfi_endproc
 855              	.LFE11:
 856              		.size	ADC_SetGain, .-ADC_SetGain
 857              		.section	.text.ADC_SetScaledGain,"ax",%progbits
 858              		.align	2
 859              		.global	ADC_SetScaledGain
 860              		.thumb
 861              		.thumb_func
 862              		.type	ADC_SetScaledGain, %function
 863              	ADC_SetScaledGain:
 864              	.LFB12:
 696:Generated_Source\PSoC5/ADC.c **** 
 697:Generated_Source\PSoC5/ADC.c **** 
 698:Generated_Source\PSoC5/ADC.c **** /*******************************************************************************
 699:Generated_Source\PSoC5/ADC.c **** * Function Name: ADC_SetScaledGain
 700:Generated_Source\PSoC5/ADC.c **** ********************************************************************************
 701:Generated_Source\PSoC5/ADC.c **** *
 702:Generated_Source\PSoC5/ADC.c **** * Summary:
 703:Generated_Source\PSoC5/ADC.c **** *  Sets the ADC gain in counts per 10 volt for the voltage conversion functions
 704:Generated_Source\PSoC5/ADC.c **** *  that follow. This value is set by default by the reference and input range
 705:Generated_Source\PSoC5/ADC.c **** *  settings. It should only be used to further calibrate the ADC with a known
 706:Generated_Source\PSoC5/ADC.c **** *  input or if the ADC is using an external reference.
 707:Generated_Source\PSoC5/ADC.c **** *
 708:Generated_Source\PSoC5/ADC.c **** * Parameters:
 709:Generated_Source\PSoC5/ADC.c **** *  int32 adcGain  counts per 10 volt
 710:Generated_Source\PSoC5/ADC.c **** *
 711:Generated_Source\PSoC5/ADC.c **** * Return:
 712:Generated_Source\PSoC5/ADC.c **** *  None.
 713:Generated_Source\PSoC5/ADC.c **** *
 714:Generated_Source\PSoC5/ADC.c **** * Global Variables:
 715:Generated_Source\PSoC5/ADC.c **** *  ADC_countsPer10Volt variable modified. This variable is used
 716:Generated_Source\PSoC5/ADC.c **** *  for gain calibration purpose.
 717:Generated_Source\PSoC5/ADC.c **** *
 718:Generated_Source\PSoC5/ADC.c **** *******************************************************************************/
 719:Generated_Source\PSoC5/ADC.c **** void ADC_SetScaledGain(int32 adcGain)
 720:Generated_Source\PSoC5/ADC.c **** {
 865              		.loc 1 720 0
 866              		.cfi_startproc
 867              		@ args = 0, pretend = 0, frame = 8
 868              		@ frame_needed = 1, uses_anonymous_args = 0
 869              		@ link register save eliminated.
 870 0000 80B4     		push	{r7}
 871              		.cfi_def_cfa_offset 4
 872              		.cfi_offset 7, -4
 873 0002 83B0     		sub	sp, sp, #12
 874              		.cfi_def_cfa_offset 16
 875 0004 00AF     		add	r7, sp, #0
ARM GAS  C:\Users\pearlstl\AppData\Local\Temp\ccGCqMEt.s 			page 29


 876              		.cfi_def_cfa_register 7
 877 0006 7860     		str	r0, [r7, #4]
 721:Generated_Source\PSoC5/ADC.c ****     ADC_countsPer10Volt = adcGain;
 878              		.loc 1 721 0
 879 0008 034A     		ldr	r2, .L58
 880 000a 7B68     		ldr	r3, [r7, #4]
 881 000c 1360     		str	r3, [r2]
 722:Generated_Source\PSoC5/ADC.c **** }
 882              		.loc 1 722 0
 883 000e 00BF     		nop
 884 0010 0C37     		adds	r7, r7, #12
 885              		.cfi_def_cfa_offset 4
 886 0012 BD46     		mov	sp, r7
 887              		.cfi_def_cfa_register 13
 888              		@ sp needed
 889 0014 80BC     		pop	{r7}
 890              		.cfi_restore 7
 891              		.cfi_def_cfa_offset 0
 892 0016 7047     		bx	lr
 893              	.L59:
 894              		.align	2
 895              	.L58:
 896 0018 00000000 		.word	ADC_countsPer10Volt
 897              		.cfi_endproc
 898              	.LFE12:
 899              		.size	ADC_SetScaledGain, .-ADC_SetScaledGain
 900              		.section	.text.ADC_CountsTo_mVolts,"ax",%progbits
 901              		.align	2
 902              		.global	ADC_CountsTo_mVolts
 903              		.thumb
 904              		.thumb_func
 905              		.type	ADC_CountsTo_mVolts, %function
 906              	ADC_CountsTo_mVolts:
 907              	.LFB13:
 723:Generated_Source\PSoC5/ADC.c **** 
 724:Generated_Source\PSoC5/ADC.c **** 
 725:Generated_Source\PSoC5/ADC.c **** /*******************************************************************************
 726:Generated_Source\PSoC5/ADC.c **** * Function Name: ADC_CountsTo_mVolts
 727:Generated_Source\PSoC5/ADC.c **** ********************************************************************************
 728:Generated_Source\PSoC5/ADC.c **** *
 729:Generated_Source\PSoC5/ADC.c **** * Summary:
 730:Generated_Source\PSoC5/ADC.c **** *  Converts the ADC output to millivolts as a 16-bit integer.
 731:Generated_Source\PSoC5/ADC.c **** *
 732:Generated_Source\PSoC5/ADC.c **** * Parameters:
 733:Generated_Source\PSoC5/ADC.c **** *  int16 adcCounts:  Result from the ADC conversion
 734:Generated_Source\PSoC5/ADC.c **** *
 735:Generated_Source\PSoC5/ADC.c **** * Return:
 736:Generated_Source\PSoC5/ADC.c **** *  int16 Result in mVolts
 737:Generated_Source\PSoC5/ADC.c **** *
 738:Generated_Source\PSoC5/ADC.c **** * Global Variables:
 739:Generated_Source\PSoC5/ADC.c **** *  ADC_offset variable used.
 740:Generated_Source\PSoC5/ADC.c **** *  ADC_countsPer10Volt variable used.
 741:Generated_Source\PSoC5/ADC.c **** *
 742:Generated_Source\PSoC5/ADC.c **** *******************************************************************************/
 743:Generated_Source\PSoC5/ADC.c **** int16 ADC_CountsTo_mVolts(int16 adcCounts)
 744:Generated_Source\PSoC5/ADC.c **** {
 908              		.loc 1 744 0
ARM GAS  C:\Users\pearlstl\AppData\Local\Temp\ccGCqMEt.s 			page 30


 909              		.cfi_startproc
 910              		@ args = 0, pretend = 0, frame = 16
 911              		@ frame_needed = 1, uses_anonymous_args = 0
 912              		@ link register save eliminated.
 913 0000 80B4     		push	{r7}
 914              		.cfi_def_cfa_offset 4
 915              		.cfi_offset 7, -4
 916 0002 85B0     		sub	sp, sp, #20
 917              		.cfi_def_cfa_offset 24
 918 0004 00AF     		add	r7, sp, #0
 919              		.cfi_def_cfa_register 7
 920 0006 0346     		mov	r3, r0
 921 0008 FB80     		strh	r3, [r7, #6]	@ movhi
 745:Generated_Source\PSoC5/ADC.c ****     int16 mVolts;
 746:Generated_Source\PSoC5/ADC.c ****     int32 countsPer10Volt;
 747:Generated_Source\PSoC5/ADC.c **** 
 748:Generated_Source\PSoC5/ADC.c ****     if(ADC_countsPerVolt != 0)
 922              		.loc 1 748 0
 923 000a 1D4B     		ldr	r3, .L66
 924 000c 1B88     		ldrh	r3, [r3]	@ movhi
 925 000e 1BB2     		sxth	r3, r3
 926 0010 002B     		cmp	r3, #0
 927 0012 09D0     		beq	.L61
 749:Generated_Source\PSoC5/ADC.c ****     {   /* Support obsolete method */
 750:Generated_Source\PSoC5/ADC.c ****         countsPer10Volt = (int32)ADC_countsPerVolt * 10;
 928              		.loc 1 750 0
 929 0014 1A4B     		ldr	r3, .L66
 930 0016 1B88     		ldrh	r3, [r3]	@ movhi
 931 0018 1BB2     		sxth	r3, r3
 932 001a 1A46     		mov	r2, r3
 933 001c 1346     		mov	r3, r2
 934 001e 9B00     		lsls	r3, r3, #2
 935 0020 1344     		add	r3, r3, r2
 936 0022 5B00     		lsls	r3, r3, #1
 937 0024 FB60     		str	r3, [r7, #12]
 938 0026 02E0     		b	.L62
 939              	.L61:
 751:Generated_Source\PSoC5/ADC.c ****     }
 752:Generated_Source\PSoC5/ADC.c ****     else
 753:Generated_Source\PSoC5/ADC.c ****     {
 754:Generated_Source\PSoC5/ADC.c ****         countsPer10Volt = ADC_countsPer10Volt;
 940              		.loc 1 754 0
 941 0028 164B     		ldr	r3, .L66+4
 942 002a 1B68     		ldr	r3, [r3]
 943 002c FB60     		str	r3, [r7, #12]
 944              	.L62:
 755:Generated_Source\PSoC5/ADC.c ****     }
 756:Generated_Source\PSoC5/ADC.c **** 
 757:Generated_Source\PSoC5/ADC.c ****     /* Subtract ADC offset */
 758:Generated_Source\PSoC5/ADC.c ****     adcCounts -= ADC_offset;
 945              		.loc 1 758 0
 946 002e 164B     		ldr	r3, .L66+8
 947 0030 1B88     		ldrh	r3, [r3]	@ movhi
 948 0032 1BB2     		sxth	r3, r3
 949 0034 FA88     		ldrh	r2, [r7, #6]
 950 0036 9BB2     		uxth	r3, r3
 951 0038 D31A     		subs	r3, r2, r3
ARM GAS  C:\Users\pearlstl\AppData\Local\Temp\ccGCqMEt.s 			page 31


 952 003a 9BB2     		uxth	r3, r3
 953 003c FB80     		strh	r3, [r7, #6]	@ movhi
 759:Generated_Source\PSoC5/ADC.c ****     /* Convert to millivolts with rounding */
 760:Generated_Source\PSoC5/ADC.c ****     mVolts = (int16)( (( (int32)adcCounts * ADC_10MV_COUNTS ) + ( (adcCounts > 0) ?
 954              		.loc 1 760 0
 955 003e B7F90630 		ldrsh	r3, [r7, #6]
 956 0042 42F21072 		movw	r2, #10000
 957 0046 02FB03F2 		mul	r2, r2, r3
 761:Generated_Source\PSoC5/ADC.c ****                        (countsPer10Volt / 2) : (-(countsPer10Volt / 2)) )) / countsPer10Volt);
 958              		.loc 1 761 0
 959 004a B7F90630 		ldrsh	r3, [r7, #6]
 960 004e 002B     		cmp	r3, #0
 961 0050 04DD     		ble	.L63
 962              		.loc 1 761 0 is_stmt 0 discriminator 1
 963 0052 FB68     		ldr	r3, [r7, #12]
 964 0054 D90F     		lsrs	r1, r3, #31
 965 0056 0B44     		add	r3, r3, r1
 966 0058 5B10     		asrs	r3, r3, #1
 967 005a 04E0     		b	.L64
 968              	.L63:
 969              		.loc 1 761 0 discriminator 2
 970 005c FB68     		ldr	r3, [r7, #12]
 971 005e D90F     		lsrs	r1, r3, #31
 972 0060 0B44     		add	r3, r3, r1
 973 0062 5B10     		asrs	r3, r3, #1
 974 0064 5B42     		negs	r3, r3
 975              	.L64:
 760:Generated_Source\PSoC5/ADC.c ****                        (countsPer10Volt / 2) : (-(countsPer10Volt / 2)) )) / countsPer10Volt);
 976              		.loc 1 760 0 is_stmt 1
 977 0066 1A44     		add	r2, r2, r3
 978              		.loc 1 761 0
 979 0068 FB68     		ldr	r3, [r7, #12]
 980 006a 92FBF3F3 		sdiv	r3, r2, r3
 760:Generated_Source\PSoC5/ADC.c ****                        (countsPer10Volt / 2) : (-(countsPer10Volt / 2)) )) / countsPer10Volt);
 981              		.loc 1 760 0
 982 006e 7B81     		strh	r3, [r7, #10]	@ movhi
 762:Generated_Source\PSoC5/ADC.c **** 
 763:Generated_Source\PSoC5/ADC.c ****     return( mVolts );
 983              		.loc 1 763 0
 984 0070 B7F90A30 		ldrsh	r3, [r7, #10]
 764:Generated_Source\PSoC5/ADC.c **** }
 985              		.loc 1 764 0
 986 0074 1846     		mov	r0, r3
 987 0076 1437     		adds	r7, r7, #20
 988              		.cfi_def_cfa_offset 4
 989 0078 BD46     		mov	sp, r7
 990              		.cfi_def_cfa_register 13
 991              		@ sp needed
 992 007a 80BC     		pop	{r7}
 993              		.cfi_restore 7
 994              		.cfi_def_cfa_offset 0
 995 007c 7047     		bx	lr
 996              	.L67:
 997 007e 00BF     		.align	2
 998              	.L66:
 999 0080 00000000 		.word	ADC_countsPerVolt
 1000 0084 00000000 		.word	ADC_countsPer10Volt
ARM GAS  C:\Users\pearlstl\AppData\Local\Temp\ccGCqMEt.s 			page 32


 1001 0088 00000000 		.word	ADC_offset
 1002              		.cfi_endproc
 1003              	.LFE13:
 1004              		.size	ADC_CountsTo_mVolts, .-ADC_CountsTo_mVolts
 1005              		.global	__aeabi_ldivmod
 1006              		.section	.text.ADC_CountsTo_uVolts,"ax",%progbits
 1007              		.align	2
 1008              		.global	ADC_CountsTo_uVolts
 1009              		.thumb
 1010              		.thumb_func
 1011              		.type	ADC_CountsTo_uVolts, %function
 1012              	ADC_CountsTo_uVolts:
 1013              	.LFB14:
 765:Generated_Source\PSoC5/ADC.c **** 
 766:Generated_Source\PSoC5/ADC.c **** 
 767:Generated_Source\PSoC5/ADC.c **** /*******************************************************************************
 768:Generated_Source\PSoC5/ADC.c **** * Function Name: ADC_CountsTo_uVolts
 769:Generated_Source\PSoC5/ADC.c **** ********************************************************************************
 770:Generated_Source\PSoC5/ADC.c **** *
 771:Generated_Source\PSoC5/ADC.c **** * Summary:
 772:Generated_Source\PSoC5/ADC.c **** *  Converts the ADC output to microvolts as a 32-bit integer.
 773:Generated_Source\PSoC5/ADC.c **** *
 774:Generated_Source\PSoC5/ADC.c **** * Parameters:
 775:Generated_Source\PSoC5/ADC.c **** *  int16 adcCounts: Result from the ADC conversion
 776:Generated_Source\PSoC5/ADC.c **** *
 777:Generated_Source\PSoC5/ADC.c **** * Return:
 778:Generated_Source\PSoC5/ADC.c **** *  int32 Result in micro Volts
 779:Generated_Source\PSoC5/ADC.c **** *
 780:Generated_Source\PSoC5/ADC.c **** * Global Variables:
 781:Generated_Source\PSoC5/ADC.c **** *  ADC_offset variable used.
 782:Generated_Source\PSoC5/ADC.c **** *  ADC_countsPer10Volt used to convert ADC counts to uVolts.
 783:Generated_Source\PSoC5/ADC.c **** *
 784:Generated_Source\PSoC5/ADC.c **** *******************************************************************************/
 785:Generated_Source\PSoC5/ADC.c **** int32 ADC_CountsTo_uVolts(int16 adcCounts)
 786:Generated_Source\PSoC5/ADC.c **** {
 1014              		.loc 1 786 0
 1015              		.cfi_startproc
 1016              		@ args = 0, pretend = 0, frame = 24
 1017              		@ frame_needed = 1, uses_anonymous_args = 0
 1018 0000 90B5     		push	{r4, r7, lr}
 1019              		.cfi_def_cfa_offset 12
 1020              		.cfi_offset 4, -12
 1021              		.cfi_offset 7, -8
 1022              		.cfi_offset 14, -4
 1023 0002 87B0     		sub	sp, sp, #28
 1024              		.cfi_def_cfa_offset 40
 1025 0004 00AF     		add	r7, sp, #0
 1026              		.cfi_def_cfa_register 7
 1027 0006 0346     		mov	r3, r0
 1028 0008 FB80     		strh	r3, [r7, #6]	@ movhi
 787:Generated_Source\PSoC5/ADC.c **** 
 788:Generated_Source\PSoC5/ADC.c ****     int64 uVolts;
 789:Generated_Source\PSoC5/ADC.c ****     int32 countsPer10Volt;
 790:Generated_Source\PSoC5/ADC.c **** 
 791:Generated_Source\PSoC5/ADC.c ****     if(ADC_countsPerVolt != 0)
 1029              		.loc 1 791 0
 1030 000a 1D4B     		ldr	r3, .L72
ARM GAS  C:\Users\pearlstl\AppData\Local\Temp\ccGCqMEt.s 			page 33


 1031 000c 1B88     		ldrh	r3, [r3]	@ movhi
 1032 000e 1BB2     		sxth	r3, r3
 1033 0010 002B     		cmp	r3, #0
 1034 0012 09D0     		beq	.L69
 792:Generated_Source\PSoC5/ADC.c ****     {   /* Support obsolete method */
 793:Generated_Source\PSoC5/ADC.c ****         countsPer10Volt = (int32)ADC_countsPerVolt * 10;
 1035              		.loc 1 793 0
 1036 0014 1A4B     		ldr	r3, .L72
 1037 0016 1B88     		ldrh	r3, [r3]	@ movhi
 1038 0018 1BB2     		sxth	r3, r3
 1039 001a 1A46     		mov	r2, r3
 1040 001c 1346     		mov	r3, r2
 1041 001e 9B00     		lsls	r3, r3, #2
 1042 0020 1344     		add	r3, r3, r2
 1043 0022 5B00     		lsls	r3, r3, #1
 1044 0024 7B61     		str	r3, [r7, #20]
 1045 0026 02E0     		b	.L70
 1046              	.L69:
 794:Generated_Source\PSoC5/ADC.c ****     }
 795:Generated_Source\PSoC5/ADC.c ****     else
 796:Generated_Source\PSoC5/ADC.c ****     {
 797:Generated_Source\PSoC5/ADC.c ****         countsPer10Volt = ADC_countsPer10Volt;
 1047              		.loc 1 797 0
 1048 0028 164B     		ldr	r3, .L72+4
 1049 002a 1B68     		ldr	r3, [r3]
 1050 002c 7B61     		str	r3, [r7, #20]
 1051              	.L70:
 798:Generated_Source\PSoC5/ADC.c ****     }
 799:Generated_Source\PSoC5/ADC.c **** 
 800:Generated_Source\PSoC5/ADC.c ****     /* Subtract ADC offset */
 801:Generated_Source\PSoC5/ADC.c ****     adcCounts -= ADC_offset;
 1052              		.loc 1 801 0
 1053 002e 164B     		ldr	r3, .L72+8
 1054 0030 1B88     		ldrh	r3, [r3]	@ movhi
 1055 0032 1BB2     		sxth	r3, r3
 1056 0034 FA88     		ldrh	r2, [r7, #6]
 1057 0036 9BB2     		uxth	r3, r3
 1058 0038 D31A     		subs	r3, r2, r3
 1059 003a 9BB2     		uxth	r3, r3
 1060 003c FB80     		strh	r3, [r7, #6]	@ movhi
 802:Generated_Source\PSoC5/ADC.c ****     /* To convert adcCounts to microVolts it is required to be multiplied
 803:Generated_Source\PSoC5/ADC.c ****     *  on 10 million and later divide on gain in counts per 10V.
 804:Generated_Source\PSoC5/ADC.c ****     */
 805:Generated_Source\PSoC5/ADC.c ****     uVolts = (( (int64)adcCounts * ADC_10UV_COUNTS ) / countsPer10Volt);
 1061              		.loc 1 805 0
 1062 003e B7F90630 		ldrsh	r3, [r7, #6]
 1063 0042 4FEAE374 		asr	r4, r3, #31
 1064 0046 114A     		ldr	r2, .L72+12
 1065 0048 02FB04F1 		mul	r1, r2, r4
 1066 004c 0022     		movs	r2, #0
 1067 004e 02FB03F2 		mul	r2, r2, r3
 1068 0052 0A44     		add	r2, r2, r1
 1069 0054 0D49     		ldr	r1, .L72+12
 1070 0056 A3FB0101 		umull	r0, r1, r3, r1
 1071 005a 5318     		adds	r3, r2, r1
 1072 005c 1946     		mov	r1, r3
 1073 005e 7B69     		ldr	r3, [r7, #20]
ARM GAS  C:\Users\pearlstl\AppData\Local\Temp\ccGCqMEt.s 			page 34


 1074 0060 4FEAE374 		asr	r4, r3, #31
 1075 0064 1A46     		mov	r2, r3
 1076 0066 2346     		mov	r3, r4
 1077 0068 FFF7FEFF 		bl	__aeabi_ldivmod
 1078 006c 0346     		mov	r3, r0
 1079 006e 0C46     		mov	r4, r1
 1080 0070 C7E90234 		strd	r3, [r7, #8]
 806:Generated_Source\PSoC5/ADC.c **** 
 807:Generated_Source\PSoC5/ADC.c ****     return((int32) uVolts );
 1081              		.loc 1 807 0
 1082 0074 BB68     		ldr	r3, [r7, #8]
 808:Generated_Source\PSoC5/ADC.c **** }
 1083              		.loc 1 808 0
 1084 0076 1846     		mov	r0, r3
 1085 0078 1C37     		adds	r7, r7, #28
 1086              		.cfi_def_cfa_offset 12
 1087 007a BD46     		mov	sp, r7
 1088              		.cfi_def_cfa_register 13
 1089              		@ sp needed
 1090 007c 90BD     		pop	{r4, r7, pc}
 1091              	.L73:
 1092 007e 00BF     		.align	2
 1093              	.L72:
 1094 0080 00000000 		.word	ADC_countsPerVolt
 1095 0084 00000000 		.word	ADC_countsPer10Volt
 1096 0088 00000000 		.word	ADC_offset
 1097 008c 80969800 		.word	10000000
 1098              		.cfi_endproc
 1099              	.LFE14:
 1100              		.size	ADC_CountsTo_uVolts, .-ADC_CountsTo_uVolts
 1101              		.global	__aeabi_i2f
 1102              		.global	__aeabi_fmul
 1103              		.global	__aeabi_fdiv
 1104              		.section	.text.ADC_CountsTo_Volts,"ax",%progbits
 1105              		.align	2
 1106              		.global	ADC_CountsTo_Volts
 1107              		.thumb
 1108              		.thumb_func
 1109              		.type	ADC_CountsTo_Volts, %function
 1110              	ADC_CountsTo_Volts:
 1111              	.LFB15:
 809:Generated_Source\PSoC5/ADC.c **** 
 810:Generated_Source\PSoC5/ADC.c **** 
 811:Generated_Source\PSoC5/ADC.c **** /*******************************************************************************
 812:Generated_Source\PSoC5/ADC.c **** * Function Name: ADC_CountsTo_Volts
 813:Generated_Source\PSoC5/ADC.c **** ********************************************************************************
 814:Generated_Source\PSoC5/ADC.c **** *
 815:Generated_Source\PSoC5/ADC.c **** * Summary:
 816:Generated_Source\PSoC5/ADC.c **** *  Converts the ADC output to volts as a floating-point number.
 817:Generated_Source\PSoC5/ADC.c **** *
 818:Generated_Source\PSoC5/ADC.c **** * Parameters:
 819:Generated_Source\PSoC5/ADC.c **** *  int16 adcCounts: Result from the ADC conversion
 820:Generated_Source\PSoC5/ADC.c **** *
 821:Generated_Source\PSoC5/ADC.c **** * Return:
 822:Generated_Source\PSoC5/ADC.c **** *  float Result in Volts
 823:Generated_Source\PSoC5/ADC.c **** *
 824:Generated_Source\PSoC5/ADC.c **** * Global Variables:
ARM GAS  C:\Users\pearlstl\AppData\Local\Temp\ccGCqMEt.s 			page 35


 825:Generated_Source\PSoC5/ADC.c **** *  ADC_offset variable used.
 826:Generated_Source\PSoC5/ADC.c **** *  ADC_countsPer10Volt used to convert ADC counts to Volts.
 827:Generated_Source\PSoC5/ADC.c **** *
 828:Generated_Source\PSoC5/ADC.c **** *******************************************************************************/
 829:Generated_Source\PSoC5/ADC.c **** float32 ADC_CountsTo_Volts(int16 adcCounts)
 830:Generated_Source\PSoC5/ADC.c **** {
 1112              		.loc 1 830 0
 1113              		.cfi_startproc
 1114              		@ args = 0, pretend = 0, frame = 16
 1115              		@ frame_needed = 1, uses_anonymous_args = 0
 1116 0000 90B5     		push	{r4, r7, lr}
 1117              		.cfi_def_cfa_offset 12
 1118              		.cfi_offset 4, -12
 1119              		.cfi_offset 7, -8
 1120              		.cfi_offset 14, -4
 1121 0002 85B0     		sub	sp, sp, #20
 1122              		.cfi_def_cfa_offset 32
 1123 0004 00AF     		add	r7, sp, #0
 1124              		.cfi_def_cfa_register 7
 1125 0006 0346     		mov	r3, r0
 1126 0008 FB80     		strh	r3, [r7, #6]	@ movhi
 831:Generated_Source\PSoC5/ADC.c ****     float32 volts;
 832:Generated_Source\PSoC5/ADC.c ****     int32 countsPer10Volt;
 833:Generated_Source\PSoC5/ADC.c **** 
 834:Generated_Source\PSoC5/ADC.c ****     if(ADC_countsPerVolt != 0)
 1127              		.loc 1 834 0
 1128 000a 1A4B     		ldr	r3, .L78
 1129 000c 1B88     		ldrh	r3, [r3]	@ movhi
 1130 000e 1BB2     		sxth	r3, r3
 1131 0010 002B     		cmp	r3, #0
 1132 0012 09D0     		beq	.L75
 835:Generated_Source\PSoC5/ADC.c ****     {   /* Support obsolete method */
 836:Generated_Source\PSoC5/ADC.c ****         countsPer10Volt = (int32)ADC_countsPerVolt * 10;
 1133              		.loc 1 836 0
 1134 0014 174B     		ldr	r3, .L78
 1135 0016 1B88     		ldrh	r3, [r3]	@ movhi
 1136 0018 1BB2     		sxth	r3, r3
 1137 001a 1A46     		mov	r2, r3
 1138 001c 1346     		mov	r3, r2
 1139 001e 9B00     		lsls	r3, r3, #2
 1140 0020 1344     		add	r3, r3, r2
 1141 0022 5B00     		lsls	r3, r3, #1
 1142 0024 FB60     		str	r3, [r7, #12]
 1143 0026 02E0     		b	.L76
 1144              	.L75:
 837:Generated_Source\PSoC5/ADC.c ****     }
 838:Generated_Source\PSoC5/ADC.c ****     else
 839:Generated_Source\PSoC5/ADC.c ****     {
 840:Generated_Source\PSoC5/ADC.c ****         countsPer10Volt = ADC_countsPer10Volt;
 1145              		.loc 1 840 0
 1146 0028 134B     		ldr	r3, .L78+4
 1147 002a 1B68     		ldr	r3, [r3]
 1148 002c FB60     		str	r3, [r7, #12]
 1149              	.L76:
 841:Generated_Source\PSoC5/ADC.c ****     }
 842:Generated_Source\PSoC5/ADC.c **** 
 843:Generated_Source\PSoC5/ADC.c ****     /* Subtract ADC offset */
ARM GAS  C:\Users\pearlstl\AppData\Local\Temp\ccGCqMEt.s 			page 36


 844:Generated_Source\PSoC5/ADC.c ****     adcCounts -= ADC_offset;
 1150              		.loc 1 844 0
 1151 002e 134B     		ldr	r3, .L78+8
 1152 0030 1B88     		ldrh	r3, [r3]	@ movhi
 1153 0032 1BB2     		sxth	r3, r3
 1154 0034 FA88     		ldrh	r2, [r7, #6]
 1155 0036 9BB2     		uxth	r3, r3
 1156 0038 D31A     		subs	r3, r2, r3
 1157 003a 9BB2     		uxth	r3, r3
 1158 003c FB80     		strh	r3, [r7, #6]	@ movhi
 845:Generated_Source\PSoC5/ADC.c **** 
 846:Generated_Source\PSoC5/ADC.c ****     volts = ((float32)adcCounts * ADC_10V_COUNTS) / (float32)countsPer10Volt;
 1159              		.loc 1 846 0
 1160 003e B7F90630 		ldrsh	r3, [r7, #6]
 1161 0042 1846     		mov	r0, r3
 1162 0044 FFF7FEFF 		bl	__aeabi_i2f
 1163 0048 0346     		mov	r3, r0
 1164 004a 0D49     		ldr	r1, .L78+12
 1165 004c 1846     		mov	r0, r3
 1166 004e FFF7FEFF 		bl	__aeabi_fmul
 1167 0052 0346     		mov	r3, r0
 1168 0054 1C46     		mov	r4, r3
 1169 0056 F868     		ldr	r0, [r7, #12]
 1170 0058 FFF7FEFF 		bl	__aeabi_i2f
 1171 005c 0346     		mov	r3, r0
 1172 005e 1946     		mov	r1, r3
 1173 0060 2046     		mov	r0, r4
 1174 0062 FFF7FEFF 		bl	__aeabi_fdiv
 1175 0066 0346     		mov	r3, r0
 1176 0068 BB60     		str	r3, [r7, #8]	@ float
 847:Generated_Source\PSoC5/ADC.c **** 
 848:Generated_Source\PSoC5/ADC.c ****     return( volts );
 1177              		.loc 1 848 0
 1178 006a BB68     		ldr	r3, [r7, #8]	@ float
 849:Generated_Source\PSoC5/ADC.c **** }
 1179              		.loc 1 849 0
 1180 006c 1846     		mov	r0, r3
 1181 006e 1437     		adds	r7, r7, #20
 1182              		.cfi_def_cfa_offset 12
 1183 0070 BD46     		mov	sp, r7
 1184              		.cfi_def_cfa_register 13
 1185              		@ sp needed
 1186 0072 90BD     		pop	{r4, r7, pc}
 1187              	.L79:
 1188              		.align	2
 1189              	.L78:
 1190 0074 00000000 		.word	ADC_countsPerVolt
 1191 0078 00000000 		.word	ADC_countsPer10Volt
 1192 007c 00000000 		.word	ADC_offset
 1193 0080 00002041 		.word	1092616192
 1194              		.cfi_endproc
 1195              	.LFE15:
 1196              		.size	ADC_CountsTo_Volts, .-ADC_CountsTo_Volts
 1197              		.text
 1198              	.Letext0:
 1199              		.file 2 "Generated_Source\\PSoC5\\cytypes.h"