ARM GAS  C:\Users\pearlstl\AppData\Local\Temp\ccBfyooW.s 			page 1


   1              		.syntax unified
   2              		.cpu cortex-m3
   3              		.fpu softvfp
   4              		.eabi_attribute 20, 1
   5              		.eabi_attribute 21, 1
   6              		.eabi_attribute 23, 3
   7              		.eabi_attribute 24, 1
   8              		.eabi_attribute 25, 1
   9              		.eabi_attribute 26, 1
  10              		.eabi_attribute 30, 6
  11              		.eabi_attribute 34, 1
  12              		.eabi_attribute 18, 4
  13              		.thumb
  14              		.syntax unified
  15              		.file	"I2S.c"
  16              		.text
  17              	.Ltext0:
  18              		.cfi_sections	.debug_frame
  19              		.global	I2S_initVar
  20              		.bss
  21              		.type	I2S_initVar, %object
  22              		.size	I2S_initVar, 1
  23              	I2S_initVar:
  24 0000 00       		.space	1
  25              		.section	.text.I2S_Enable,"ax",%progbits
  26              		.align	2
  27              		.global	I2S_Enable
  28              		.thumb
  29              		.thumb_func
  30              		.type	I2S_Enable, %function
  31              	I2S_Enable:
  32              	.LFB0:
  33              		.file 1 "Generated_Source\\PSoC5\\I2S.c"
   1:Generated_Source\PSoC5/I2S.c **** /*******************************************************************************
   2:Generated_Source\PSoC5/I2S.c **** * File Name: I2S.c
   3:Generated_Source\PSoC5/I2S.c **** * Version 2.70
   4:Generated_Source\PSoC5/I2S.c **** *
   5:Generated_Source\PSoC5/I2S.c **** * Description:
   6:Generated_Source\PSoC5/I2S.c **** *  This file contains the setup, control and status commands for the I2S
   7:Generated_Source\PSoC5/I2S.c **** *  component.
   8:Generated_Source\PSoC5/I2S.c **** *
   9:Generated_Source\PSoC5/I2S.c **** * Note:
  10:Generated_Source\PSoC5/I2S.c **** *
  11:Generated_Source\PSoC5/I2S.c **** ********************************************************************************
  12:Generated_Source\PSoC5/I2S.c **** * Copyright 2008-2015, Cypress Semiconductor Corporation.  All rights reserved.
  13:Generated_Source\PSoC5/I2S.c **** * You may use this file only in accordance with the license, terms, conditions,
  14:Generated_Source\PSoC5/I2S.c **** * disclaimers, and limitations in the end user license agreement accompanying
  15:Generated_Source\PSoC5/I2S.c **** * the software package with which this file was provided.
  16:Generated_Source\PSoC5/I2S.c **** *******************************************************************************/
  17:Generated_Source\PSoC5/I2S.c **** 
  18:Generated_Source\PSoC5/I2S.c **** #include "CyLib.h"
  19:Generated_Source\PSoC5/I2S.c **** #include "I2S.h"
  20:Generated_Source\PSoC5/I2S.c **** 
  21:Generated_Source\PSoC5/I2S.c **** uint8 I2S_initVar = 0u;
  22:Generated_Source\PSoC5/I2S.c **** 
  23:Generated_Source\PSoC5/I2S.c **** 
  24:Generated_Source\PSoC5/I2S.c **** /*******************************************************************************
ARM GAS  C:\Users\pearlstl\AppData\Local\Temp\ccBfyooW.s 			page 2


  25:Generated_Source\PSoC5/I2S.c **** * Function Name: I2S_Enable
  26:Generated_Source\PSoC5/I2S.c **** ********************************************************************************
  27:Generated_Source\PSoC5/I2S.c **** *
  28:Generated_Source\PSoC5/I2S.c **** * Summary:
  29:Generated_Source\PSoC5/I2S.c **** *  Enables I2S interface. Starts the generation of the sck and ws outputs.
  30:Generated_Source\PSoC5/I2S.c **** *  The Tx and Rx directions remain disabled. It is not necessary to call
  31:Generated_Source\PSoC5/I2S.c **** *  I2S_Enable() because the I2S_Start() routine calls this function, which is
  32:Generated_Source\PSoC5/I2S.c **** *  the preferred method to begin component operation.
  33:Generated_Source\PSoC5/I2S.c **** *
  34:Generated_Source\PSoC5/I2S.c **** * Parameters:
  35:Generated_Source\PSoC5/I2S.c **** *  None.
  36:Generated_Source\PSoC5/I2S.c **** *
  37:Generated_Source\PSoC5/I2S.c **** * Return:
  38:Generated_Source\PSoC5/I2S.c **** *  None.
  39:Generated_Source\PSoC5/I2S.c **** *
  40:Generated_Source\PSoC5/I2S.c **** *******************************************************************************/
  41:Generated_Source\PSoC5/I2S.c **** void I2S_Enable(void) 
  42:Generated_Source\PSoC5/I2S.c **** {
  34              		.loc 1 42 0
  35              		.cfi_startproc
  36              		@ args = 0, pretend = 0, frame = 8
  37              		@ frame_needed = 1, uses_anonymous_args = 0
  38 0000 80B5     		push	{r7, lr}
  39              		.cfi_def_cfa_offset 8
  40              		.cfi_offset 7, -8
  41              		.cfi_offset 14, -4
  42 0002 82B0     		sub	sp, sp, #8
  43              		.cfi_def_cfa_offset 16
  44 0004 00AF     		add	r7, sp, #0
  45              		.cfi_def_cfa_register 7
  43:Generated_Source\PSoC5/I2S.c ****     uint8 enableInterrupts;
  44:Generated_Source\PSoC5/I2S.c **** 
  45:Generated_Source\PSoC5/I2S.c ****     enableInterrupts = CyEnterCriticalSection();
  46              		.loc 1 45 0
  47 0006 FFF7FEFF 		bl	CyEnterCriticalSection
  48 000a 0346     		mov	r3, r0
  49 000c FB71     		strb	r3, [r7, #7]
  46:Generated_Source\PSoC5/I2S.c ****     I2S_AUX_CONTROL_REG |= I2S_CNT_START;
  50              		.loc 1 46 0
  51 000e 0C4A     		ldr	r2, .L2
  52 0010 0B4B     		ldr	r3, .L2
  53 0012 1B78     		ldrb	r3, [r3]
  54 0014 DBB2     		uxtb	r3, r3
  55 0016 43F02003 		orr	r3, r3, #32
  56 001a DBB2     		uxtb	r3, r3
  57 001c 1370     		strb	r3, [r2]
  47:Generated_Source\PSoC5/I2S.c ****     CyExitCriticalSection(enableInterrupts);
  58              		.loc 1 47 0
  59 001e FB79     		ldrb	r3, [r7, #7]	@ zero_extendqisi2
  60 0020 1846     		mov	r0, r3
  61 0022 FFF7FEFF 		bl	CyExitCriticalSection
  48:Generated_Source\PSoC5/I2S.c **** 
  49:Generated_Source\PSoC5/I2S.c ****     I2S_CONTROL_REG |= I2S_EN;
  62              		.loc 1 49 0
  63 0026 074A     		ldr	r2, .L2+4
  64 0028 064B     		ldr	r3, .L2+4
  65 002a 1B78     		ldrb	r3, [r3]
ARM GAS  C:\Users\pearlstl\AppData\Local\Temp\ccBfyooW.s 			page 3


  66 002c DBB2     		uxtb	r3, r3
  67 002e 43F00403 		orr	r3, r3, #4
  68 0032 DBB2     		uxtb	r3, r3
  69 0034 1370     		strb	r3, [r2]
  50:Generated_Source\PSoC5/I2S.c **** }
  70              		.loc 1 50 0
  71 0036 00BF     		nop
  72 0038 0837     		adds	r7, r7, #8
  73              		.cfi_def_cfa_offset 8
  74 003a BD46     		mov	sp, r7
  75              		.cfi_def_cfa_register 13
  76              		@ sp needed
  77 003c 80BD     		pop	{r7, pc}
  78              	.L3:
  79 003e 00BF     		.align	2
  80              	.L2:
  81 0040 93640040 		.word	1073767571
  82 0044 72640040 		.word	1073767538
  83              		.cfi_endproc
  84              	.LFE0:
  85              		.size	I2S_Enable, .-I2S_Enable
  86              		.section	.text.I2S_Init,"ax",%progbits
  87              		.align	2
  88              		.global	I2S_Init
  89              		.thumb
  90              		.thumb_func
  91              		.type	I2S_Init, %function
  92              	I2S_Init:
  93              	.LFB1:
  51:Generated_Source\PSoC5/I2S.c **** 
  52:Generated_Source\PSoC5/I2S.c **** 
  53:Generated_Source\PSoC5/I2S.c **** /*******************************************************************************
  54:Generated_Source\PSoC5/I2S.c **** * Function Name: I2S_Init
  55:Generated_Source\PSoC5/I2S.c **** ********************************************************************************
  56:Generated_Source\PSoC5/I2S.c **** *
  57:Generated_Source\PSoC5/I2S.c **** * Summary:
  58:Generated_Source\PSoC5/I2S.c **** *  Initializes or restores default I2S configuration provided with customizer.
  59:Generated_Source\PSoC5/I2S.c **** *  It is not necessary to call I2S_Init() because the I2S_Start() routine calls
  60:Generated_Source\PSoC5/I2S.c **** *  this function, which is the preferred method to begin component operation.
  61:Generated_Source\PSoC5/I2S.c **** *
  62:Generated_Source\PSoC5/I2S.c **** * Parameters:
  63:Generated_Source\PSoC5/I2S.c **** *  None.
  64:Generated_Source\PSoC5/I2S.c **** *
  65:Generated_Source\PSoC5/I2S.c **** * Return:
  66:Generated_Source\PSoC5/I2S.c **** *  None.
  67:Generated_Source\PSoC5/I2S.c **** *
  68:Generated_Source\PSoC5/I2S.c **** *******************************************************************************/
  69:Generated_Source\PSoC5/I2S.c **** void I2S_Init(void) 
  70:Generated_Source\PSoC5/I2S.c **** {
  94              		.loc 1 70 0
  95              		.cfi_startproc
  96              		@ args = 0, pretend = 0, frame = 0
  97              		@ frame_needed = 1, uses_anonymous_args = 0
  98              		@ link register save eliminated.
  99 0000 80B4     		push	{r7}
 100              		.cfi_def_cfa_offset 4
 101              		.cfi_offset 7, -4
ARM GAS  C:\Users\pearlstl\AppData\Local\Temp\ccBfyooW.s 			page 4


 102 0002 00AF     		add	r7, sp, #0
 103              		.cfi_def_cfa_register 7
  71:Generated_Source\PSoC5/I2S.c ****     #if (I2S_CLIP_DETECT_ENABLE)
  72:Generated_Source\PSoC5/I2S.c ****         static const uint8 CYCODE I2S_posThresholds[] = {0u};
  73:Generated_Source\PSoC5/I2S.c ****         static const int8  CYCODE I2S_negThresholds[] = {-1};
  74:Generated_Source\PSoC5/I2S.c ****     #endif /* I2S_CLIP_DETECT_ENABLE */
  75:Generated_Source\PSoC5/I2S.c **** 
  76:Generated_Source\PSoC5/I2S.c ****     #if (I2S_DYNAMIC_BIT_RESOLUTION)
  77:Generated_Source\PSoC5/I2S.c ****         (void)I2S_SetDataBits(I2S_DATA_BITS);
  78:Generated_Source\PSoC5/I2S.c ****     #endif /* I2S_DYNAMIC_BIT_RESOLUTION */
  79:Generated_Source\PSoC5/I2S.c **** 
  80:Generated_Source\PSoC5/I2S.c ****     /* Initialize Tx interrupt source selected in customizer */
  81:Generated_Source\PSoC5/I2S.c ****     #if (I2S_TX_DIRECTION_ENABLE)
  82:Generated_Source\PSoC5/I2S.c ****         I2S_SET_TX_INT_MASK(CH0, I2S_TX_INT_SOURCE);
 104              		.loc 1 82 0
 105 0004 094A     		ldr	r2, .L5
 106 0006 094B     		ldr	r3, .L5
 107 0008 1B78     		ldrb	r3, [r3]
 108 000a DBB2     		uxtb	r3, r3
 109 000c 23F00703 		bic	r3, r3, #7
 110 0010 DBB2     		uxtb	r3, r3
 111 0012 1370     		strb	r3, [r2]
 112 0014 054A     		ldr	r2, .L5
 113 0016 054B     		ldr	r3, .L5
 114 0018 1B78     		ldrb	r3, [r3]
 115 001a DBB2     		uxtb	r3, r3
 116 001c 43F00203 		orr	r3, r3, #2
 117 0020 DBB2     		uxtb	r3, r3
 118 0022 1370     		strb	r3, [r2]
  83:Generated_Source\PSoC5/I2S.c ****         #if (I2S_TX_STEREO_1_PRESENT)
  84:Generated_Source\PSoC5/I2S.c ****             I2S_SET_TX_INT_MASK(CH1, I2S_TX_INT_SOURCE);
  85:Generated_Source\PSoC5/I2S.c ****         #endif /* I2S_TX_STEREO_1_PRESENT */
  86:Generated_Source\PSoC5/I2S.c ****         #if (I2S_TX_STEREO_2_PRESENT)
  87:Generated_Source\PSoC5/I2S.c ****             I2S_SET_TX_INT_MASK(CH2, I2S_TX_INT_SOURCE);
  88:Generated_Source\PSoC5/I2S.c ****         #endif /* I2S_TX_STEREO_2_PRESENT */
  89:Generated_Source\PSoC5/I2S.c ****         #if (I2S_TX_STEREO_3_PRESENT)
  90:Generated_Source\PSoC5/I2S.c ****             I2S_SET_TX_INT_MASK(CH3, I2S_TX_INT_SOURCE);
  91:Generated_Source\PSoC5/I2S.c ****         #endif /* I2S_TX_STEREO_3_PRESENT */
  92:Generated_Source\PSoC5/I2S.c ****         #if (I2S_TX_STEREO_4_PRESENT)
  93:Generated_Source\PSoC5/I2S.c ****             I2S_SET_TX_INT_MASK(CH4, I2S_TX_INT_SOURCE);
  94:Generated_Source\PSoC5/I2S.c ****         #endif /* I2S_TX_STEREO_4_PRESENT */
  95:Generated_Source\PSoC5/I2S.c ****     #endif /* (I2S_TX_DIRECTION_ENABLE) */
  96:Generated_Source\PSoC5/I2S.c ****     
  97:Generated_Source\PSoC5/I2S.c ****     /* Initialize Rx interrupt source and clipping thresholds selected in customizer */
  98:Generated_Source\PSoC5/I2S.c ****     #if (I2S_RX_DIRECTION_ENABLE)
  99:Generated_Source\PSoC5/I2S.c ****         I2S_SET_RX_INT_MASK(CH0, I2S_RX_INT_SOURCE);
 100:Generated_Source\PSoC5/I2S.c ****         #if (I2S_CLIP_DETECT_ENABLE)
 101:Generated_Source\PSoC5/I2S.c ****             I2S_SET_POS_THRESHOLD(CH0, I2S_posThresholds[I2S_STEREO_0]);
 102:Generated_Source\PSoC5/I2S.c ****             I2S_SET_NEG_THRESHOLD(CH0, I2S_negThresholds[I2S_STEREO_0]);
 103:Generated_Source\PSoC5/I2S.c ****         #endif /* I2S_CLIP_DETECT_ENABLE */
 104:Generated_Source\PSoC5/I2S.c ****         #if (I2S_RX_STEREO_1_PRESENT)
 105:Generated_Source\PSoC5/I2S.c ****             I2S_SET_RX_INT_MASK(CH1, I2S_RX_INT_SOURCE);
 106:Generated_Source\PSoC5/I2S.c ****             #if (I2S_CLIP_DETECT_ENABLE)
 107:Generated_Source\PSoC5/I2S.c ****                 I2S_SET_POS_THRESHOLD(CH1, I2S_posThresholds[I2S_STEREO_1]);
 108:Generated_Source\PSoC5/I2S.c ****                 I2S_SET_NEG_THRESHOLD(CH1, I2S_negThresholds[I2S_STEREO_1]);
 109:Generated_Source\PSoC5/I2S.c ****             #endif /* I2S_CLIP_DETECT_ENABLE */
 110:Generated_Source\PSoC5/I2S.c ****         #endif /* I2S_RX_STEREO_1_PRESENT */
ARM GAS  C:\Users\pearlstl\AppData\Local\Temp\ccBfyooW.s 			page 5


 111:Generated_Source\PSoC5/I2S.c ****         #if (I2S_RX_STEREO_2_PRESENT)
 112:Generated_Source\PSoC5/I2S.c ****             I2S_SET_RX_INT_MASK(CH2, I2S_RX_INT_SOURCE);
 113:Generated_Source\PSoC5/I2S.c ****             #if (I2S_CLIP_DETECT_ENABLE)
 114:Generated_Source\PSoC5/I2S.c ****                 I2S_SET_POS_THRESHOLD(CH2, I2S_posThresholds[I2S_STEREO_2]);
 115:Generated_Source\PSoC5/I2S.c ****                 I2S_SET_NEG_THRESHOLD(CH2, I2S_negThresholds[I2S_STEREO_2]);
 116:Generated_Source\PSoC5/I2S.c ****             #endif /* I2S_CLIP_DETECT_ENABLE */
 117:Generated_Source\PSoC5/I2S.c ****         #endif /* I2S_RX_STEREO_2_PRESENT */
 118:Generated_Source\PSoC5/I2S.c ****         #if (I2S_RX_STEREO_3_PRESENT)
 119:Generated_Source\PSoC5/I2S.c ****             I2S_SET_RX_INT_MASK(CH3, I2S_RX_INT_SOURCE);
 120:Generated_Source\PSoC5/I2S.c ****             #if (I2S_CLIP_DETECT_ENABLE)
 121:Generated_Source\PSoC5/I2S.c ****                 I2S_SET_POS_THRESHOLD(CH3, I2S_posThresholds[I2S_STEREO_3]);
 122:Generated_Source\PSoC5/I2S.c ****                 I2S_SET_NEG_THRESHOLD(CH3, I2S_negThresholds[I2S_STEREO_3]);
 123:Generated_Source\PSoC5/I2S.c ****             #endif /* I2S_CLIP_DETECT_ENABLE */
 124:Generated_Source\PSoC5/I2S.c ****         #endif /* I2S_RX_STEREO_3_PRESENT */
 125:Generated_Source\PSoC5/I2S.c ****         #if (I2S_RX_STEREO_4_PRESENT)
 126:Generated_Source\PSoC5/I2S.c ****             I2S_SET_RX_INT_MASK(CH4, I2S_RX_INT_SOURCE);
 127:Generated_Source\PSoC5/I2S.c ****             #if (I2S_CLIP_DETECT_ENABLE)
 128:Generated_Source\PSoC5/I2S.c ****                 I2S_SET_POS_THRESHOLD(CH4, I2S_posThresholds[I2S_STEREO_4]);
 129:Generated_Source\PSoC5/I2S.c ****                 I2S_SET_NEG_THRESHOLD(CH4, I2S_negThresholds[I2S_STEREO_4]);
 130:Generated_Source\PSoC5/I2S.c ****             #endif /* I2S_CLIP_DETECT_ENABLE */
 131:Generated_Source\PSoC5/I2S.c ****         #endif /* I2S_RX_STEREO_4_PRESENT */
 132:Generated_Source\PSoC5/I2S.c ****     #endif /* (I2S_RX_DIRECTION_ENABLE) */
 133:Generated_Source\PSoC5/I2S.c **** }
 119              		.loc 1 133 0
 120 0024 00BF     		nop
 121 0026 BD46     		mov	sp, r7
 122              		.cfi_def_cfa_register 13
 123              		@ sp needed
 124 0028 80BC     		pop	{r7}
 125              		.cfi_restore 7
 126              		.cfi_def_cfa_offset 0
 127 002a 7047     		bx	lr
 128              	.L6:
 129              		.align	2
 130              	.L5:
 131 002c 82640040 		.word	1073767554
 132              		.cfi_endproc
 133              	.LFE1:
 134              		.size	I2S_Init, .-I2S_Init
 135              		.section	.text.I2S_Start,"ax",%progbits
 136              		.align	2
 137              		.global	I2S_Start
 138              		.thumb
 139              		.thumb_func
 140              		.type	I2S_Start, %function
 141              	I2S_Start:
 142              	.LFB2:
 134:Generated_Source\PSoC5/I2S.c **** 
 135:Generated_Source\PSoC5/I2S.c **** 
 136:Generated_Source\PSoC5/I2S.c **** /*******************************************************************************
 137:Generated_Source\PSoC5/I2S.c **** * Function Name: I2S_Start
 138:Generated_Source\PSoC5/I2S.c **** ********************************************************************************
 139:Generated_Source\PSoC5/I2S.c **** *
 140:Generated_Source\PSoC5/I2S.c **** * Summary:
 141:Generated_Source\PSoC5/I2S.c **** *  Starts the I2S interface. Starts the generation of the sck and ws outputs.
 142:Generated_Source\PSoC5/I2S.c **** *  The Tx and Rx directions remain disabled.
 143:Generated_Source\PSoC5/I2S.c **** *
ARM GAS  C:\Users\pearlstl\AppData\Local\Temp\ccBfyooW.s 			page 6


 144:Generated_Source\PSoC5/I2S.c **** * Parameters:
 145:Generated_Source\PSoC5/I2S.c **** *  None.
 146:Generated_Source\PSoC5/I2S.c **** *
 147:Generated_Source\PSoC5/I2S.c **** * Return:
 148:Generated_Source\PSoC5/I2S.c **** *  None.
 149:Generated_Source\PSoC5/I2S.c **** *
 150:Generated_Source\PSoC5/I2S.c **** * Global Variables:
 151:Generated_Source\PSoC5/I2S.c **** *  I2S_initVar - used to check initial configuration, modified on
 152:Generated_Source\PSoC5/I2S.c **** *  first function call.
 153:Generated_Source\PSoC5/I2S.c **** *
 154:Generated_Source\PSoC5/I2S.c **** * Reentrant:
 155:Generated_Source\PSoC5/I2S.c **** *  No.
 156:Generated_Source\PSoC5/I2S.c **** *
 157:Generated_Source\PSoC5/I2S.c **** *******************************************************************************/
 158:Generated_Source\PSoC5/I2S.c **** void I2S_Start(void) 
 159:Generated_Source\PSoC5/I2S.c **** {
 143              		.loc 1 159 0
 144              		.cfi_startproc
 145              		@ args = 0, pretend = 0, frame = 0
 146              		@ frame_needed = 1, uses_anonymous_args = 0
 147 0000 80B5     		push	{r7, lr}
 148              		.cfi_def_cfa_offset 8
 149              		.cfi_offset 7, -8
 150              		.cfi_offset 14, -4
 151 0002 00AF     		add	r7, sp, #0
 152              		.cfi_def_cfa_register 7
 160:Generated_Source\PSoC5/I2S.c ****     if(0u == I2S_initVar)
 153              		.loc 1 160 0
 154 0004 064B     		ldr	r3, .L9
 155 0006 1B78     		ldrb	r3, [r3]	@ zero_extendqisi2
 156 0008 002B     		cmp	r3, #0
 157 000a 04D1     		bne	.L8
 161:Generated_Source\PSoC5/I2S.c ****     {
 162:Generated_Source\PSoC5/I2S.c ****         I2S_Init();
 158              		.loc 1 162 0
 159 000c FFF7FEFF 		bl	I2S_Init
 163:Generated_Source\PSoC5/I2S.c ****         I2S_initVar = 1u;
 160              		.loc 1 163 0
 161 0010 034B     		ldr	r3, .L9
 162 0012 0122     		movs	r2, #1
 163 0014 1A70     		strb	r2, [r3]
 164              	.L8:
 164:Generated_Source\PSoC5/I2S.c ****     }
 165:Generated_Source\PSoC5/I2S.c **** 
 166:Generated_Source\PSoC5/I2S.c ****     I2S_Enable();
 165              		.loc 1 166 0
 166 0016 FFF7FEFF 		bl	I2S_Enable
 167:Generated_Source\PSoC5/I2S.c **** }
 167              		.loc 1 167 0
 168 001a 00BF     		nop
 169 001c 80BD     		pop	{r7, pc}
 170              	.L10:
 171 001e 00BF     		.align	2
 172              	.L9:
 173 0020 00000000 		.word	I2S_initVar
 174              		.cfi_endproc
 175              	.LFE2:
ARM GAS  C:\Users\pearlstl\AppData\Local\Temp\ccBfyooW.s 			page 7


 176              		.size	I2S_Start, .-I2S_Start
 177              		.section	.text.I2S_Stop,"ax",%progbits
 178              		.align	2
 179              		.global	I2S_Stop
 180              		.thumb
 181              		.thumb_func
 182              		.type	I2S_Stop, %function
 183              	I2S_Stop:
 184              	.LFB3:
 168:Generated_Source\PSoC5/I2S.c **** 
 169:Generated_Source\PSoC5/I2S.c **** 
 170:Generated_Source\PSoC5/I2S.c **** /*******************************************************************************
 171:Generated_Source\PSoC5/I2S.c **** * Function Name: I2S_Stop
 172:Generated_Source\PSoC5/I2S.c **** ********************************************************************************
 173:Generated_Source\PSoC5/I2S.c **** *
 174:Generated_Source\PSoC5/I2S.c **** * Summary:
 175:Generated_Source\PSoC5/I2S.c **** *  Disables the I2S interface. The sck and ws outputs are set to 0. The Tx and
 176:Generated_Source\PSoC5/I2S.c **** *  Rx directions are disabled and their FIFOs are cleared.
 177:Generated_Source\PSoC5/I2S.c **** *
 178:Generated_Source\PSoC5/I2S.c **** * Parameters:
 179:Generated_Source\PSoC5/I2S.c **** *  None.
 180:Generated_Source\PSoC5/I2S.c **** *
 181:Generated_Source\PSoC5/I2S.c **** * Return:
 182:Generated_Source\PSoC5/I2S.c **** *  None.
 183:Generated_Source\PSoC5/I2S.c **** *
 184:Generated_Source\PSoC5/I2S.c **** *******************************************************************************/
 185:Generated_Source\PSoC5/I2S.c **** void I2S_Stop(void) 
 186:Generated_Source\PSoC5/I2S.c **** {
 185              		.loc 1 186 0
 186              		.cfi_startproc
 187              		@ args = 0, pretend = 0, frame = 8
 188              		@ frame_needed = 1, uses_anonymous_args = 0
 189 0000 80B5     		push	{r7, lr}
 190              		.cfi_def_cfa_offset 8
 191              		.cfi_offset 7, -8
 192              		.cfi_offset 14, -4
 193 0002 82B0     		sub	sp, sp, #8
 194              		.cfi_def_cfa_offset 16
 195 0004 00AF     		add	r7, sp, #0
 196              		.cfi_def_cfa_register 7
 187:Generated_Source\PSoC5/I2S.c ****     uint8 enableInterrupts;
 188:Generated_Source\PSoC5/I2S.c **** 
 189:Generated_Source\PSoC5/I2S.c ****     I2S_CONTROL_REG &= (uint8)~I2S_EN;
 197              		.loc 1 189 0
 198 0006 114A     		ldr	r2, .L12
 199 0008 104B     		ldr	r3, .L12
 200 000a 1B78     		ldrb	r3, [r3]
 201 000c DBB2     		uxtb	r3, r3
 202 000e 23F00403 		bic	r3, r3, #4
 203 0012 DBB2     		uxtb	r3, r3
 204 0014 1370     		strb	r3, [r2]
 190:Generated_Source\PSoC5/I2S.c **** 
 191:Generated_Source\PSoC5/I2S.c ****     enableInterrupts = CyEnterCriticalSection();
 205              		.loc 1 191 0
 206 0016 FFF7FEFF 		bl	CyEnterCriticalSection
 207 001a 0346     		mov	r3, r0
 208 001c FB71     		strb	r3, [r7, #7]
ARM GAS  C:\Users\pearlstl\AppData\Local\Temp\ccBfyooW.s 			page 8


 192:Generated_Source\PSoC5/I2S.c ****     I2S_AUX_CONTROL_REG &= (uint8)~I2S_CNT_START;
 209              		.loc 1 192 0
 210 001e 0C4A     		ldr	r2, .L12+4
 211 0020 0B4B     		ldr	r3, .L12+4
 212 0022 1B78     		ldrb	r3, [r3]
 213 0024 DBB2     		uxtb	r3, r3
 214 0026 23F02003 		bic	r3, r3, #32
 215 002a DBB2     		uxtb	r3, r3
 216 002c 1370     		strb	r3, [r2]
 193:Generated_Source\PSoC5/I2S.c ****     CyExitCriticalSection(enableInterrupts);
 217              		.loc 1 193 0
 218 002e FB79     		ldrb	r3, [r7, #7]	@ zero_extendqisi2
 219 0030 1846     		mov	r0, r3
 220 0032 FFF7FEFF 		bl	CyExitCriticalSection
 194:Generated_Source\PSoC5/I2S.c **** 
 195:Generated_Source\PSoC5/I2S.c ****     /* Clear counter value to force reload when component is enabled */
 196:Generated_Source\PSoC5/I2S.c ****     I2S_CNT_COUNT_REG = 0u;
 221              		.loc 1 196 0
 222 0036 074B     		ldr	r3, .L12+8
 223 0038 0022     		movs	r2, #0
 224 003a 1A70     		strb	r2, [r3]
 197:Generated_Source\PSoC5/I2S.c **** 
 198:Generated_Source\PSoC5/I2S.c ****     #if (I2S_TX_DIRECTION_ENABLE)
 199:Generated_Source\PSoC5/I2S.c ****         I2S_DisableTx();
 225              		.loc 1 199 0
 226 003c FFF7FEFF 		bl	I2S_DisableTx
 200:Generated_Source\PSoC5/I2S.c ****         I2S_ClearTxFIFO();
 227              		.loc 1 200 0
 228 0040 FFF7FEFF 		bl	I2S_ClearTxFIFO
 201:Generated_Source\PSoC5/I2S.c ****     #endif /* (I2S_TX_DIRECTION_ENABLE) */
 202:Generated_Source\PSoC5/I2S.c ****     
 203:Generated_Source\PSoC5/I2S.c ****     #if (I2S_RX_DIRECTION_ENABLE)
 204:Generated_Source\PSoC5/I2S.c ****         I2S_DisableRx();
 205:Generated_Source\PSoC5/I2S.c ****         I2S_ClearRxFIFO();
 206:Generated_Source\PSoC5/I2S.c ****     #endif /* (I2S_RX_DIRECTION_ENABLE) */
 207:Generated_Source\PSoC5/I2S.c **** }
 229              		.loc 1 207 0
 230 0044 00BF     		nop
 231 0046 0837     		adds	r7, r7, #8
 232              		.cfi_def_cfa_offset 8
 233 0048 BD46     		mov	sp, r7
 234              		.cfi_def_cfa_register 13
 235              		@ sp needed
 236 004a 80BD     		pop	{r7, pc}
 237              	.L13:
 238              		.align	2
 239              	.L12:
 240 004c 72640040 		.word	1073767538
 241 0050 93640040 		.word	1073767571
 242 0054 73640040 		.word	1073767539
 243              		.cfi_endproc
 244              	.LFE3:
 245              		.size	I2S_Stop, .-I2S_Stop
 246              		.section	.text.I2S_EnableTx,"ax",%progbits
 247              		.align	2
 248              		.global	I2S_EnableTx
 249              		.thumb
ARM GAS  C:\Users\pearlstl\AppData\Local\Temp\ccBfyooW.s 			page 9


 250              		.thumb_func
 251              		.type	I2S_EnableTx, %function
 252              	I2S_EnableTx:
 253              	.LFB4:
 208:Generated_Source\PSoC5/I2S.c **** 
 209:Generated_Source\PSoC5/I2S.c **** #if (I2S_DYNAMIC_BIT_RESOLUTION)
 210:Generated_Source\PSoC5/I2S.c ****     /*******************************************************************************
 211:Generated_Source\PSoC5/I2S.c ****     * Function Name: I2S_SetDataBits
 212:Generated_Source\PSoC5/I2S.c ****     ********************************************************************************
 213:Generated_Source\PSoC5/I2S.c ****     *
 214:Generated_Source\PSoC5/I2S.c ****     * Summary:
 215:Generated_Source\PSoC5/I2S.c ****     *  Sets the number of data bits for each sample. The component must be stopped
 216:Generated_Source\PSoC5/I2S.c ****     *  before calling this API.
 217:Generated_Source\PSoC5/I2S.c ****     *
 218:Generated_Source\PSoC5/I2S.c ****     * Parameters:
 219:Generated_Source\PSoC5/I2S.c ****     *  dataBits: the number of data bits for each sample. Valid values - 8/16/24/32.
 220:Generated_Source\PSoC5/I2S.c ****     *  If Tx or Rx byte swapping is enabled, valid values are 16 and 24.
 221:Generated_Source\PSoC5/I2S.c ****     *
 222:Generated_Source\PSoC5/I2S.c ****     * Return:
 223:Generated_Source\PSoC5/I2S.c ****     *  CYRET_SUCCESS  : Operation is successful
 224:Generated_Source\PSoC5/I2S.c ****     *  CYRET_BAD_PARAM: Invalid parameter value
 225:Generated_Source\PSoC5/I2S.c ****     *
 226:Generated_Source\PSoC5/I2S.c ****     * Side effects:
 227:Generated_Source\PSoC5/I2S.c ****     *  Calling this API while the component is operating may cause unexpected
 228:Generated_Source\PSoC5/I2S.c ****     *  behavior.
 229:Generated_Source\PSoC5/I2S.c ****     *
 230:Generated_Source\PSoC5/I2S.c ****     *******************************************************************************/
 231:Generated_Source\PSoC5/I2S.c ****     cystatus I2S_SetDataBits(uint8 dataBits)   
 232:Generated_Source\PSoC5/I2S.c ****     {
 233:Generated_Source\PSoC5/I2S.c ****         cystatus status;
 234:Generated_Source\PSoC5/I2S.c **** 
 235:Generated_Source\PSoC5/I2S.c ****         CYASSERT((dataBits >= I2S_MIN_DATA_BITS) && (dataBits <= I2S_MAX_DATA_BITS));
 236:Generated_Source\PSoC5/I2S.c **** 
 237:Generated_Source\PSoC5/I2S.c ****         status = CYRET_SUCCESS;
 238:Generated_Source\PSoC5/I2S.c ****         /* The component must be stopped prior calling this API. Therefore
 239:Generated_Source\PSoC5/I2S.c ****         * all the control bits except the bits modified are zeros.
 240:Generated_Source\PSoC5/I2S.c ****         */
 241:Generated_Source\PSoC5/I2S.c ****         switch(dataBits)
 242:Generated_Source\PSoC5/I2S.c ****         {
 243:Generated_Source\PSoC5/I2S.c ****         case I2S_8BIT_DATA:
 244:Generated_Source\PSoC5/I2S.c ****             I2S_CONTROL_REG = I2S_8BIT_MODE;
 245:Generated_Source\PSoC5/I2S.c ****             break;
 246:Generated_Source\PSoC5/I2S.c ****         case I2S_16BIT_DATA:
 247:Generated_Source\PSoC5/I2S.c ****             I2S_CONTROL_REG = I2S_16BIT_MODE;
 248:Generated_Source\PSoC5/I2S.c ****             break;
 249:Generated_Source\PSoC5/I2S.c ****         case I2S_24BIT_DATA:
 250:Generated_Source\PSoC5/I2S.c ****             I2S_CONTROL_REG = I2S_24BIT_MODE;
 251:Generated_Source\PSoC5/I2S.c ****             break;
 252:Generated_Source\PSoC5/I2S.c ****         case I2S_32BIT_DATA:
 253:Generated_Source\PSoC5/I2S.c ****             I2S_CONTROL_REG = I2S_32BIT_MODE;
 254:Generated_Source\PSoC5/I2S.c ****             break;
 255:Generated_Source\PSoC5/I2S.c ****         default: status = CYRET_BAD_PARAM;
 256:Generated_Source\PSoC5/I2S.c ****             break;
 257:Generated_Source\PSoC5/I2S.c ****         }
 258:Generated_Source\PSoC5/I2S.c **** 
 259:Generated_Source\PSoC5/I2S.c ****         return (status);
 260:Generated_Source\PSoC5/I2S.c ****     }
ARM GAS  C:\Users\pearlstl\AppData\Local\Temp\ccBfyooW.s 			page 10


 261:Generated_Source\PSoC5/I2S.c **** 
 262:Generated_Source\PSoC5/I2S.c **** #endif /* I2S_DYNAMIC_BIT_RESOLUTION */
 263:Generated_Source\PSoC5/I2S.c **** 
 264:Generated_Source\PSoC5/I2S.c **** #if(I2S_TX_DIRECTION_ENABLE)
 265:Generated_Source\PSoC5/I2S.c ****     /*******************************************************************************
 266:Generated_Source\PSoC5/I2S.c ****     * Function Name: I2S_EnableTx
 267:Generated_Source\PSoC5/I2S.c ****     ********************************************************************************
 268:Generated_Source\PSoC5/I2S.c ****     *
 269:Generated_Source\PSoC5/I2S.c ****     * Summary:
 270:Generated_Source\PSoC5/I2S.c ****     *  Enables the Tx direction of the I2S interface.  At the next word
 271:Generated_Source\PSoC5/I2S.c ****     *  select falling edge transmission will begin.
 272:Generated_Source\PSoC5/I2S.c ****     *
 273:Generated_Source\PSoC5/I2S.c ****     * Parameters:
 274:Generated_Source\PSoC5/I2S.c ****     *  None.
 275:Generated_Source\PSoC5/I2S.c ****     *
 276:Generated_Source\PSoC5/I2S.c ****     * Return:
 277:Generated_Source\PSoC5/I2S.c ****     *  None.
 278:Generated_Source\PSoC5/I2S.c ****     *
 279:Generated_Source\PSoC5/I2S.c ****     *******************************************************************************/
 280:Generated_Source\PSoC5/I2S.c ****     void I2S_EnableTx(void) 
 281:Generated_Source\PSoC5/I2S.c ****     {
 254              		.loc 1 281 0
 255              		.cfi_startproc
 256              		@ args = 0, pretend = 0, frame = 8
 257              		@ frame_needed = 1, uses_anonymous_args = 0
 258 0000 80B5     		push	{r7, lr}
 259              		.cfi_def_cfa_offset 8
 260              		.cfi_offset 7, -8
 261              		.cfi_offset 14, -4
 262 0002 82B0     		sub	sp, sp, #8
 263              		.cfi_def_cfa_offset 16
 264 0004 00AF     		add	r7, sp, #0
 265              		.cfi_def_cfa_register 7
 282:Generated_Source\PSoC5/I2S.c ****         uint8 enableInterrupts;
 283:Generated_Source\PSoC5/I2S.c **** 
 284:Generated_Source\PSoC5/I2S.c ****         enableInterrupts = CyEnterCriticalSection();
 266              		.loc 1 284 0
 267 0006 FFF7FEFF 		bl	CyEnterCriticalSection
 268 000a 0346     		mov	r3, r0
 269 000c FB71     		strb	r3, [r7, #7]
 285:Generated_Source\PSoC5/I2S.c ****         I2S_TX_STS0_1_ACTL_REG |= I2S_INT_EN;
 270              		.loc 1 285 0
 271 000e 0C4A     		ldr	r2, .L15
 272 0010 0B4B     		ldr	r3, .L15
 273 0012 1B78     		ldrb	r3, [r3]
 274 0014 DBB2     		uxtb	r3, r3
 275 0016 43F01003 		orr	r3, r3, #16
 276 001a DBB2     		uxtb	r3, r3
 277 001c 1370     		strb	r3, [r2]
 286:Generated_Source\PSoC5/I2S.c ****         #ifdef I2S_TX_STS2_3_ACTL_REG
 287:Generated_Source\PSoC5/I2S.c ****             I2S_TX_STS2_3_ACTL_REG |= I2S_INT_EN;
 288:Generated_Source\PSoC5/I2S.c ****         #endif /* I2S_TX_STS2_3_ACTL_REG */
 289:Generated_Source\PSoC5/I2S.c ****         #ifdef I2S_TX_STS4_ACTL_REG
 290:Generated_Source\PSoC5/I2S.c ****             I2S_TX_STS4_ACTL_REG |= I2S_INT_EN;
 291:Generated_Source\PSoC5/I2S.c ****         #endif /* I2S_TX_STS4_ACTL_REG */
 292:Generated_Source\PSoC5/I2S.c ****         CyExitCriticalSection(enableInterrupts);
 278              		.loc 1 292 0
ARM GAS  C:\Users\pearlstl\AppData\Local\Temp\ccBfyooW.s 			page 11


 279 001e FB79     		ldrb	r3, [r7, #7]	@ zero_extendqisi2
 280 0020 1846     		mov	r0, r3
 281 0022 FFF7FEFF 		bl	CyExitCriticalSection
 293:Generated_Source\PSoC5/I2S.c ****         
 294:Generated_Source\PSoC5/I2S.c ****         I2S_CONTROL_REG |= I2S_TX_EN;
 282              		.loc 1 294 0
 283 0026 074A     		ldr	r2, .L15+4
 284 0028 064B     		ldr	r3, .L15+4
 285 002a 1B78     		ldrb	r3, [r3]
 286 002c DBB2     		uxtb	r3, r3
 287 002e 43F00103 		orr	r3, r3, #1
 288 0032 DBB2     		uxtb	r3, r3
 289 0034 1370     		strb	r3, [r2]
 295:Generated_Source\PSoC5/I2S.c ****     }
 290              		.loc 1 295 0
 291 0036 00BF     		nop
 292 0038 0837     		adds	r7, r7, #8
 293              		.cfi_def_cfa_offset 8
 294 003a BD46     		mov	sp, r7
 295              		.cfi_def_cfa_register 13
 296              		@ sp needed
 297 003c 80BD     		pop	{r7, pc}
 298              	.L16:
 299 003e 00BF     		.align	2
 300              	.L15:
 301 0040 92640040 		.word	1073767570
 302 0044 72640040 		.word	1073767538
 303              		.cfi_endproc
 304              	.LFE4:
 305              		.size	I2S_EnableTx, .-I2S_EnableTx
 306              		.section	.text.I2S_DisableTx,"ax",%progbits
 307              		.align	2
 308              		.global	I2S_DisableTx
 309              		.thumb
 310              		.thumb_func
 311              		.type	I2S_DisableTx, %function
 312              	I2S_DisableTx:
 313              	.LFB5:
 296:Generated_Source\PSoC5/I2S.c **** 
 297:Generated_Source\PSoC5/I2S.c **** 
 298:Generated_Source\PSoC5/I2S.c ****     /*******************************************************************************
 299:Generated_Source\PSoC5/I2S.c ****     * Function Name: I2S_DisableTx
 300:Generated_Source\PSoC5/I2S.c ****     ********************************************************************************
 301:Generated_Source\PSoC5/I2S.c ****     *
 302:Generated_Source\PSoC5/I2S.c ****     * Summary:
 303:Generated_Source\PSoC5/I2S.c ****     *  Disables the Tx direction of the I2S interface.  At the next word
 304:Generated_Source\PSoC5/I2S.c ****     *  select falling edge transmission of data will stop and a constant 0 value
 305:Generated_Source\PSoC5/I2S.c ****     *  will be transmitted.
 306:Generated_Source\PSoC5/I2S.c ****     *
 307:Generated_Source\PSoC5/I2S.c ****     * Parameters:
 308:Generated_Source\PSoC5/I2S.c ****     *  None.
 309:Generated_Source\PSoC5/I2S.c ****     *
 310:Generated_Source\PSoC5/I2S.c ****     * Return:
 311:Generated_Source\PSoC5/I2S.c ****     *  None.
 312:Generated_Source\PSoC5/I2S.c ****     *
 313:Generated_Source\PSoC5/I2S.c ****     *******************************************************************************/
 314:Generated_Source\PSoC5/I2S.c ****     void I2S_DisableTx(void) 
ARM GAS  C:\Users\pearlstl\AppData\Local\Temp\ccBfyooW.s 			page 12


 315:Generated_Source\PSoC5/I2S.c ****     {
 314              		.loc 1 315 0
 315              		.cfi_startproc
 316              		@ args = 0, pretend = 0, frame = 8
 317              		@ frame_needed = 1, uses_anonymous_args = 0
 318 0000 80B5     		push	{r7, lr}
 319              		.cfi_def_cfa_offset 8
 320              		.cfi_offset 7, -8
 321              		.cfi_offset 14, -4
 322 0002 82B0     		sub	sp, sp, #8
 323              		.cfi_def_cfa_offset 16
 324 0004 00AF     		add	r7, sp, #0
 325              		.cfi_def_cfa_register 7
 316:Generated_Source\PSoC5/I2S.c ****         uint8 enableInterrupts;
 317:Generated_Source\PSoC5/I2S.c **** 
 318:Generated_Source\PSoC5/I2S.c ****         I2S_CONTROL_REG &= (uint8)~I2S_TX_EN;
 326              		.loc 1 318 0
 327 0006 0E4A     		ldr	r2, .L18
 328 0008 0D4B     		ldr	r3, .L18
 329 000a 1B78     		ldrb	r3, [r3]
 330 000c DBB2     		uxtb	r3, r3
 331 000e 23F00103 		bic	r3, r3, #1
 332 0012 DBB2     		uxtb	r3, r3
 333 0014 1370     		strb	r3, [r2]
 319:Generated_Source\PSoC5/I2S.c **** 
 320:Generated_Source\PSoC5/I2S.c ****         enableInterrupts = CyEnterCriticalSection();
 334              		.loc 1 320 0
 335 0016 FFF7FEFF 		bl	CyEnterCriticalSection
 336 001a 0346     		mov	r3, r0
 337 001c FB71     		strb	r3, [r7, #7]
 321:Generated_Source\PSoC5/I2S.c ****         I2S_TX_STS0_1_ACTL_REG &= (uint8)~I2S_INT_EN;
 338              		.loc 1 321 0
 339 001e 094A     		ldr	r2, .L18+4
 340 0020 084B     		ldr	r3, .L18+4
 341 0022 1B78     		ldrb	r3, [r3]
 342 0024 DBB2     		uxtb	r3, r3
 343 0026 23F01003 		bic	r3, r3, #16
 344 002a DBB2     		uxtb	r3, r3
 345 002c 1370     		strb	r3, [r2]
 322:Generated_Source\PSoC5/I2S.c ****         #ifdef I2S_TX_STS2_3_ACTL_REG
 323:Generated_Source\PSoC5/I2S.c ****             I2S_TX_STS2_3_ACTL_REG &= (uint8)~I2S_INT_EN;
 324:Generated_Source\PSoC5/I2S.c ****         #endif /* I2S_TX_STS2_3_ACTL_REG */
 325:Generated_Source\PSoC5/I2S.c ****         #ifdef I2S_TX_STS4_ACTL_REG
 326:Generated_Source\PSoC5/I2S.c ****             I2S_TX_STS4_ACTL_REG &= (uint8)~I2S_INT_EN;
 327:Generated_Source\PSoC5/I2S.c ****         #endif /* I2S_TX_STS4_ACTL_REG */
 328:Generated_Source\PSoC5/I2S.c ****         CyExitCriticalSection(enableInterrupts);
 346              		.loc 1 328 0
 347 002e FB79     		ldrb	r3, [r7, #7]	@ zero_extendqisi2
 348 0030 1846     		mov	r0, r3
 349 0032 FFF7FEFF 		bl	CyExitCriticalSection
 329:Generated_Source\PSoC5/I2S.c ****     }
 350              		.loc 1 329 0
 351 0036 00BF     		nop
 352 0038 0837     		adds	r7, r7, #8
 353              		.cfi_def_cfa_offset 8
 354 003a BD46     		mov	sp, r7
 355              		.cfi_def_cfa_register 13
ARM GAS  C:\Users\pearlstl\AppData\Local\Temp\ccBfyooW.s 			page 13


 356              		@ sp needed
 357 003c 80BD     		pop	{r7, pc}
 358              	.L19:
 359 003e 00BF     		.align	2
 360              	.L18:
 361 0040 72640040 		.word	1073767538
 362 0044 92640040 		.word	1073767570
 363              		.cfi_endproc
 364              	.LFE5:
 365              		.size	I2S_DisableTx, .-I2S_DisableTx
 366              		.section	.text.I2S_ClearTxFIFO,"ax",%progbits
 367              		.align	2
 368              		.global	I2S_ClearTxFIFO
 369              		.thumb
 370              		.thumb_func
 371              		.type	I2S_ClearTxFIFO, %function
 372              	I2S_ClearTxFIFO:
 373              	.LFB6:
 330:Generated_Source\PSoC5/I2S.c **** 
 331:Generated_Source\PSoC5/I2S.c **** 
 332:Generated_Source\PSoC5/I2S.c ****     /*******************************************************************************
 333:Generated_Source\PSoC5/I2S.c ****     * Function Name: I2S_ClearTxFIFO
 334:Generated_Source\PSoC5/I2S.c ****     ********************************************************************************
 335:Generated_Source\PSoC5/I2S.c ****     *
 336:Generated_Source\PSoC5/I2S.c ****     * Summary:
 337:Generated_Source\PSoC5/I2S.c ****     *  Clears out the FIFOs for all Tx channels. Any data present in the FIFO will
 338:Generated_Source\PSoC5/I2S.c ****     *  not be sent. This call should be made only when the Tx direction is disabled.
 339:Generated_Source\PSoC5/I2S.c ****     *
 340:Generated_Source\PSoC5/I2S.c ****     * Parameters:
 341:Generated_Source\PSoC5/I2S.c ****     *  None.
 342:Generated_Source\PSoC5/I2S.c ****     *
 343:Generated_Source\PSoC5/I2S.c ****     * Return:
 344:Generated_Source\PSoC5/I2S.c ****     *  None.
 345:Generated_Source\PSoC5/I2S.c ****     *
 346:Generated_Source\PSoC5/I2S.c ****     *******************************************************************************/
 347:Generated_Source\PSoC5/I2S.c ****     void I2S_ClearTxFIFO(void) 
 348:Generated_Source\PSoC5/I2S.c ****     {
 374              		.loc 1 348 0
 375              		.cfi_startproc
 376              		@ args = 0, pretend = 0, frame = 8
 377              		@ frame_needed = 1, uses_anonymous_args = 0
 378 0000 80B5     		push	{r7, lr}
 379              		.cfi_def_cfa_offset 8
 380              		.cfi_offset 7, -8
 381              		.cfi_offset 14, -4
 382 0002 82B0     		sub	sp, sp, #8
 383              		.cfi_def_cfa_offset 16
 384 0004 00AF     		add	r7, sp, #0
 385              		.cfi_def_cfa_register 7
 349:Generated_Source\PSoC5/I2S.c ****         uint8 enableInterrupts;
 350:Generated_Source\PSoC5/I2S.c **** 
 351:Generated_Source\PSoC5/I2S.c ****         enableInterrupts = CyEnterCriticalSection();
 386              		.loc 1 351 0
 387 0006 FFF7FEFF 		bl	CyEnterCriticalSection
 388 000a 0346     		mov	r3, r0
 389 000c FB71     		strb	r3, [r7, #7]
 352:Generated_Source\PSoC5/I2S.c ****         I2S_CLEAR_TX_FIFO(CH0);
ARM GAS  C:\Users\pearlstl\AppData\Local\Temp\ccBfyooW.s 			page 14


 390              		.loc 1 352 0
 391 000e 0C4A     		ldr	r2, .L21
 392 0010 0B4B     		ldr	r3, .L21
 393 0012 1B78     		ldrb	r3, [r3]
 394 0014 DBB2     		uxtb	r3, r3
 395 0016 43F00303 		orr	r3, r3, #3
 396 001a DBB2     		uxtb	r3, r3
 397 001c 1370     		strb	r3, [r2]
 398 001e 084A     		ldr	r2, .L21
 399 0020 074B     		ldr	r3, .L21
 400 0022 1B78     		ldrb	r3, [r3]
 401 0024 DBB2     		uxtb	r3, r3
 402 0026 23F00303 		bic	r3, r3, #3
 403 002a DBB2     		uxtb	r3, r3
 404 002c 1370     		strb	r3, [r2]
 353:Generated_Source\PSoC5/I2S.c ****         #if (I2S_TX_STEREO_1_PRESENT)
 354:Generated_Source\PSoC5/I2S.c ****             I2S_CLEAR_TX_FIFO(CH1);
 355:Generated_Source\PSoC5/I2S.c ****         #endif /* I2S_TX_STEREO_1_PRESENT */
 356:Generated_Source\PSoC5/I2S.c ****         #if (I2S_TX_STEREO_2_PRESENT)
 357:Generated_Source\PSoC5/I2S.c ****             I2S_CLEAR_TX_FIFO(CH2);
 358:Generated_Source\PSoC5/I2S.c ****         #endif /* I2S_TX_STEREO_2_PRESENT */
 359:Generated_Source\PSoC5/I2S.c ****         #if (I2S_TX_STEREO_3_PRESENT)
 360:Generated_Source\PSoC5/I2S.c ****             I2S_CLEAR_TX_FIFO(CH3);
 361:Generated_Source\PSoC5/I2S.c ****         #endif /* I2S_TX_STEREO_3_PRESENT */
 362:Generated_Source\PSoC5/I2S.c ****         #if (I2S_TX_STEREO_4_PRESENT)
 363:Generated_Source\PSoC5/I2S.c ****             I2S_CLEAR_TX_FIFO(CH4);
 364:Generated_Source\PSoC5/I2S.c ****         #endif /* I2S_TX_STEREO_4_PRESENT */
 365:Generated_Source\PSoC5/I2S.c ****         CyExitCriticalSection(enableInterrupts);
 405              		.loc 1 365 0
 406 002e FB79     		ldrb	r3, [r7, #7]	@ zero_extendqisi2
 407 0030 1846     		mov	r0, r3
 408 0032 FFF7FEFF 		bl	CyExitCriticalSection
 366:Generated_Source\PSoC5/I2S.c ****     }
 409              		.loc 1 366 0
 410 0036 00BF     		nop
 411 0038 0837     		adds	r7, r7, #8
 412              		.cfi_def_cfa_offset 8
 413 003a BD46     		mov	sp, r7
 414              		.cfi_def_cfa_register 13
 415              		@ sp needed
 416 003c 80BD     		pop	{r7, pc}
 417              	.L22:
 418 003e 00BF     		.align	2
 419              	.L21:
 420 0040 92640040 		.word	1073767570
 421              		.cfi_endproc
 422              	.LFE6:
 423              		.size	I2S_ClearTxFIFO, .-I2S_ClearTxFIFO
 424              		.text
 425              	.Letext0:
 426              		.file 2 "Generated_Source\\PSoC5\\cytypes.h"