ARM GAS  C:\Users\pearlstl\AppData\Local\Temp\ccNrHr47.s 			page 1


   1              		.syntax unified
   2              		.cpu cortex-m3
   3              		.fpu softvfp
   4              		.eabi_attribute 20, 1
   5              		.eabi_attribute 21, 1
   6              		.eabi_attribute 23, 3
   7              		.eabi_attribute 24, 1
   8              		.eabi_attribute 25, 1
   9              		.eabi_attribute 26, 1
  10              		.eabi_attribute 30, 6
  11              		.eabi_attribute 34, 1
  12              		.eabi_attribute 18, 4
  13              		.thumb
  14              		.syntax unified
  15              		.file	"I2S_PM.c"
  16              		.text
  17              	.Ltext0:
  18              		.cfi_sections	.debug_frame
  19              		.bss
  20              		.align	2
  21              	I2S_backup:
  22 0000 00       		.space	1
  23              		.section	.text.I2S_SaveConfig,"ax",%progbits
  24              		.align	2
  25              		.global	I2S_SaveConfig
  26              		.thumb
  27              		.thumb_func
  28              		.type	I2S_SaveConfig, %function
  29              	I2S_SaveConfig:
  30              	.LFB0:
  31              		.file 1 "Generated_Source\\PSoC5\\I2S_PM.c"
   1:Generated_Source\PSoC5/I2S_PM.c **** /*******************************************************************************
   2:Generated_Source\PSoC5/I2S_PM.c **** * File Name: I2S_PM.c
   3:Generated_Source\PSoC5/I2S_PM.c **** * Version 2.70
   4:Generated_Source\PSoC5/I2S_PM.c **** *
   5:Generated_Source\PSoC5/I2S_PM.c **** * Description:
   6:Generated_Source\PSoC5/I2S_PM.c **** *  This file contains the setup, control and status commands to support
   7:Generated_Source\PSoC5/I2S_PM.c **** *  component operations in low power mode.
   8:Generated_Source\PSoC5/I2S_PM.c **** *
   9:Generated_Source\PSoC5/I2S_PM.c **** * Note:
  10:Generated_Source\PSoC5/I2S_PM.c **** *
  11:Generated_Source\PSoC5/I2S_PM.c **** ********************************************************************************
  12:Generated_Source\PSoC5/I2S_PM.c **** * Copyright 2008-2015, Cypress Semiconductor Corporation.  All rights reserved.
  13:Generated_Source\PSoC5/I2S_PM.c **** * You may use this file only in accordance with the license, terms, conditions,
  14:Generated_Source\PSoC5/I2S_PM.c **** * disclaimers, and limitations in the end user license agreement accompanying
  15:Generated_Source\PSoC5/I2S_PM.c **** * the software package with which this file was provided.
  16:Generated_Source\PSoC5/I2S_PM.c **** *******************************************************************************/
  17:Generated_Source\PSoC5/I2S_PM.c **** 
  18:Generated_Source\PSoC5/I2S_PM.c **** #include "I2S.h"
  19:Generated_Source\PSoC5/I2S_PM.c **** 
  20:Generated_Source\PSoC5/I2S_PM.c **** static I2S_BACKUP_STRUCT  I2S_backup = {0u};
  21:Generated_Source\PSoC5/I2S_PM.c **** 
  22:Generated_Source\PSoC5/I2S_PM.c **** 
  23:Generated_Source\PSoC5/I2S_PM.c **** /*******************************************************************************
  24:Generated_Source\PSoC5/I2S_PM.c **** * Function Name: I2S_SaveConfig
  25:Generated_Source\PSoC5/I2S_PM.c **** ********************************************************************************
  26:Generated_Source\PSoC5/I2S_PM.c **** *
ARM GAS  C:\Users\pearlstl\AppData\Local\Temp\ccNrHr47.s 			page 2


  27:Generated_Source\PSoC5/I2S_PM.c **** * Summary:
  28:Generated_Source\PSoC5/I2S_PM.c **** *  Empty function. Left to preserve backward compatibility.
  29:Generated_Source\PSoC5/I2S_PM.c **** *
  30:Generated_Source\PSoC5/I2S_PM.c **** * Parameters:
  31:Generated_Source\PSoC5/I2S_PM.c **** *  None.
  32:Generated_Source\PSoC5/I2S_PM.c **** *
  33:Generated_Source\PSoC5/I2S_PM.c **** * Return:
  34:Generated_Source\PSoC5/I2S_PM.c **** *  None.
  35:Generated_Source\PSoC5/I2S_PM.c **** *
  36:Generated_Source\PSoC5/I2S_PM.c **** *******************************************************************************/
  37:Generated_Source\PSoC5/I2S_PM.c **** void I2S_SaveConfig(void) 
  38:Generated_Source\PSoC5/I2S_PM.c **** {
  32              		.loc 1 38 0
  33              		.cfi_startproc
  34              		@ args = 0, pretend = 0, frame = 0
  35              		@ frame_needed = 1, uses_anonymous_args = 0
  36              		@ link register save eliminated.
  37 0000 80B4     		push	{r7}
  38              		.cfi_def_cfa_offset 4
  39              		.cfi_offset 7, -4
  40 0002 00AF     		add	r7, sp, #0
  41              		.cfi_def_cfa_register 7
  39:Generated_Source\PSoC5/I2S_PM.c ****     /* Nothing to save. All registers are retention. */
  40:Generated_Source\PSoC5/I2S_PM.c **** }
  42              		.loc 1 40 0
  43 0004 00BF     		nop
  44 0006 BD46     		mov	sp, r7
  45              		.cfi_def_cfa_register 13
  46              		@ sp needed
  47 0008 80BC     		pop	{r7}
  48              		.cfi_restore 7
  49              		.cfi_def_cfa_offset 0
  50 000a 7047     		bx	lr
  51              		.cfi_endproc
  52              	.LFE0:
  53              		.size	I2S_SaveConfig, .-I2S_SaveConfig
  54              		.section	.text.I2S_RestoreConfig,"ax",%progbits
  55              		.align	2
  56              		.global	I2S_RestoreConfig
  57              		.thumb
  58              		.thumb_func
  59              		.type	I2S_RestoreConfig, %function
  60              	I2S_RestoreConfig:
  61              	.LFB1:
  41:Generated_Source\PSoC5/I2S_PM.c **** 
  42:Generated_Source\PSoC5/I2S_PM.c **** 
  43:Generated_Source\PSoC5/I2S_PM.c **** /*******************************************************************************
  44:Generated_Source\PSoC5/I2S_PM.c **** * Function Name: I2S_RestoreConfig
  45:Generated_Source\PSoC5/I2S_PM.c **** ********************************************************************************
  46:Generated_Source\PSoC5/I2S_PM.c **** *
  47:Generated_Source\PSoC5/I2S_PM.c **** * Summary:
  48:Generated_Source\PSoC5/I2S_PM.c **** *  Empty function. Left to preserve backward compatibility.
  49:Generated_Source\PSoC5/I2S_PM.c **** *
  50:Generated_Source\PSoC5/I2S_PM.c **** * Parameters:
  51:Generated_Source\PSoC5/I2S_PM.c **** *  None.
  52:Generated_Source\PSoC5/I2S_PM.c **** *
  53:Generated_Source\PSoC5/I2S_PM.c **** * Return:
ARM GAS  C:\Users\pearlstl\AppData\Local\Temp\ccNrHr47.s 			page 3


  54:Generated_Source\PSoC5/I2S_PM.c **** *  None.
  55:Generated_Source\PSoC5/I2S_PM.c **** *
  56:Generated_Source\PSoC5/I2S_PM.c **** *******************************************************************************/
  57:Generated_Source\PSoC5/I2S_PM.c **** void I2S_RestoreConfig(void) 
  58:Generated_Source\PSoC5/I2S_PM.c **** {
  62              		.loc 1 58 0
  63              		.cfi_startproc
  64              		@ args = 0, pretend = 0, frame = 0
  65              		@ frame_needed = 1, uses_anonymous_args = 0
  66              		@ link register save eliminated.
  67 0000 80B4     		push	{r7}
  68              		.cfi_def_cfa_offset 4
  69              		.cfi_offset 7, -4
  70 0002 00AF     		add	r7, sp, #0
  71              		.cfi_def_cfa_register 7
  59:Generated_Source\PSoC5/I2S_PM.c ****     /* Nothing to restore. All registers are retention. */
  60:Generated_Source\PSoC5/I2S_PM.c **** }
  72              		.loc 1 60 0
  73 0004 00BF     		nop
  74 0006 BD46     		mov	sp, r7
  75              		.cfi_def_cfa_register 13
  76              		@ sp needed
  77 0008 80BC     		pop	{r7}
  78              		.cfi_restore 7
  79              		.cfi_def_cfa_offset 0
  80 000a 7047     		bx	lr
  81              		.cfi_endproc
  82              	.LFE1:
  83              		.size	I2S_RestoreConfig, .-I2S_RestoreConfig
  84              		.section	.text.I2S_Sleep,"ax",%progbits
  85              		.align	2
  86              		.global	I2S_Sleep
  87              		.thumb
  88              		.thumb_func
  89              		.type	I2S_Sleep, %function
  90              	I2S_Sleep:
  91              	.LFB2:
  61:Generated_Source\PSoC5/I2S_PM.c **** 
  62:Generated_Source\PSoC5/I2S_PM.c **** 
  63:Generated_Source\PSoC5/I2S_PM.c **** /*******************************************************************************
  64:Generated_Source\PSoC5/I2S_PM.c **** * Function Name: I2S_Sleep
  65:Generated_Source\PSoC5/I2S_PM.c **** ********************************************************************************
  66:Generated_Source\PSoC5/I2S_PM.c **** *
  67:Generated_Source\PSoC5/I2S_PM.c **** * Summary:
  68:Generated_Source\PSoC5/I2S_PM.c **** *  Prepares I2S for entering sleep mode.
  69:Generated_Source\PSoC5/I2S_PM.c **** *
  70:Generated_Source\PSoC5/I2S_PM.c **** * Parameters:
  71:Generated_Source\PSoC5/I2S_PM.c **** *  None.
  72:Generated_Source\PSoC5/I2S_PM.c **** *
  73:Generated_Source\PSoC5/I2S_PM.c **** * Return:
  74:Generated_Source\PSoC5/I2S_PM.c **** *  None.
  75:Generated_Source\PSoC5/I2S_PM.c **** *
  76:Generated_Source\PSoC5/I2S_PM.c **** * Global Variables:
  77:Generated_Source\PSoC5/I2S_PM.c **** *  I2S_backup - used to store component state prior entering 
  78:Generated_Source\PSoC5/I2S_PM.c **** *    sleep mode.
  79:Generated_Source\PSoC5/I2S_PM.c **** *
  80:Generated_Source\PSoC5/I2S_PM.c **** * Reentrant:
ARM GAS  C:\Users\pearlstl\AppData\Local\Temp\ccNrHr47.s 			page 4


  81:Generated_Source\PSoC5/I2S_PM.c **** *  No.
  82:Generated_Source\PSoC5/I2S_PM.c **** *
  83:Generated_Source\PSoC5/I2S_PM.c **** *******************************************************************************/
  84:Generated_Source\PSoC5/I2S_PM.c **** void I2S_Sleep(void) 
  85:Generated_Source\PSoC5/I2S_PM.c **** {
  92              		.loc 1 85 0
  93              		.cfi_startproc
  94              		@ args = 0, pretend = 0, frame = 0
  95              		@ frame_needed = 1, uses_anonymous_args = 0
  96 0000 80B5     		push	{r7, lr}
  97              		.cfi_def_cfa_offset 8
  98              		.cfi_offset 7, -8
  99              		.cfi_offset 14, -4
 100 0002 00AF     		add	r7, sp, #0
 101              		.cfi_def_cfa_register 7
  86:Generated_Source\PSoC5/I2S_PM.c ****     /* Get component state */
  87:Generated_Source\PSoC5/I2S_PM.c ****     I2S_backup.enableState = I2S_CONTROL_REG;
 102              		.loc 1 87 0
 103 0004 044B     		ldr	r3, .L4
 104 0006 1B78     		ldrb	r3, [r3]
 105 0008 DAB2     		uxtb	r2, r3
 106 000a 044B     		ldr	r3, .L4+4
 107 000c 1A70     		strb	r2, [r3]
  88:Generated_Source\PSoC5/I2S_PM.c **** 
  89:Generated_Source\PSoC5/I2S_PM.c ****     /* Stop component */
  90:Generated_Source\PSoC5/I2S_PM.c ****     I2S_Stop();
 108              		.loc 1 90 0
 109 000e FFF7FEFF 		bl	I2S_Stop
  91:Generated_Source\PSoC5/I2S_PM.c **** }
 110              		.loc 1 91 0
 111 0012 00BF     		nop
 112 0014 80BD     		pop	{r7, pc}
 113              	.L5:
 114 0016 00BF     		.align	2
 115              	.L4:
 116 0018 72640040 		.word	1073767538
 117 001c 00000000 		.word	I2S_backup
 118              		.cfi_endproc
 119              	.LFE2:
 120              		.size	I2S_Sleep, .-I2S_Sleep
 121              		.section	.text.I2S_Wakeup,"ax",%progbits
 122              		.align	2
 123              		.global	I2S_Wakeup
 124              		.thumb
 125              		.thumb_func
 126              		.type	I2S_Wakeup, %function
 127              	I2S_Wakeup:
 128              	.LFB3:
  92:Generated_Source\PSoC5/I2S_PM.c **** 
  93:Generated_Source\PSoC5/I2S_PM.c **** 
  94:Generated_Source\PSoC5/I2S_PM.c **** /*******************************************************************************
  95:Generated_Source\PSoC5/I2S_PM.c **** * Function Name: I2S_Wakeup
  96:Generated_Source\PSoC5/I2S_PM.c **** ********************************************************************************
  97:Generated_Source\PSoC5/I2S_PM.c **** *
  98:Generated_Source\PSoC5/I2S_PM.c **** * Summary:
  99:Generated_Source\PSoC5/I2S_PM.c **** *  Prepares I2S for exit from sleep mode.
 100:Generated_Source\PSoC5/I2S_PM.c **** *
ARM GAS  C:\Users\pearlstl\AppData\Local\Temp\ccNrHr47.s 			page 5


 101:Generated_Source\PSoC5/I2S_PM.c **** * Parameters:
 102:Generated_Source\PSoC5/I2S_PM.c **** *  None.
 103:Generated_Source\PSoC5/I2S_PM.c **** *
 104:Generated_Source\PSoC5/I2S_PM.c **** * Return:
 105:Generated_Source\PSoC5/I2S_PM.c **** *  None.
 106:Generated_Source\PSoC5/I2S_PM.c **** *
 107:Generated_Source\PSoC5/I2S_PM.c **** * Global Variables:
 108:Generated_Source\PSoC5/I2S_PM.c **** *  I2S_backup - used to restore component state after exit from
 109:Generated_Source\PSoC5/I2S_PM.c **** *    sleep mode.
 110:Generated_Source\PSoC5/I2S_PM.c **** *
 111:Generated_Source\PSoC5/I2S_PM.c **** *******************************************************************************/
 112:Generated_Source\PSoC5/I2S_PM.c **** void I2S_Wakeup(void) 
 113:Generated_Source\PSoC5/I2S_PM.c **** {
 129              		.loc 1 113 0
 130              		.cfi_startproc
 131              		@ args = 0, pretend = 0, frame = 0
 132              		@ frame_needed = 1, uses_anonymous_args = 0
 133 0000 80B5     		push	{r7, lr}
 134              		.cfi_def_cfa_offset 8
 135              		.cfi_offset 7, -8
 136              		.cfi_offset 14, -4
 137 0002 00AF     		add	r7, sp, #0
 138              		.cfi_def_cfa_register 7
 114:Generated_Source\PSoC5/I2S_PM.c ****     #if (I2S_DYNAMIC_BIT_RESOLUTION)
 115:Generated_Source\PSoC5/I2S_PM.c ****         I2S_CONTROL_REG = I2S_backup.enableState & I2S_BIT_RESOLUTION_MODE_MASK;
 116:Generated_Source\PSoC5/I2S_PM.c ****     #endif /* I2S_DYNAMIC_BIT_RESOLUTION */
 117:Generated_Source\PSoC5/I2S_PM.c **** 
 118:Generated_Source\PSoC5/I2S_PM.c ****     if(0u != (I2S_backup.enableState & I2S_EN))
 139              		.loc 1 118 0
 140 0004 084B     		ldr	r3, .L9
 141 0006 1B78     		ldrb	r3, [r3]	@ zero_extendqisi2
 142 0008 03F00403 		and	r3, r3, #4
 143 000c 002B     		cmp	r3, #0
 144 000e 09D0     		beq	.L8
 119:Generated_Source\PSoC5/I2S_PM.c ****     {
 120:Generated_Source\PSoC5/I2S_PM.c ****         /* Enable component's operation */
 121:Generated_Source\PSoC5/I2S_PM.c ****         I2S_Enable();
 145              		.loc 1 121 0
 146 0010 FFF7FEFF 		bl	I2S_Enable
 122:Generated_Source\PSoC5/I2S_PM.c **** 
 123:Generated_Source\PSoC5/I2S_PM.c ****         /* Enable Tx/Rx direction if they were enabled before sleep */
 124:Generated_Source\PSoC5/I2S_PM.c ****         #if(I2S_TX_DIRECTION_ENABLE)
 125:Generated_Source\PSoC5/I2S_PM.c ****             if(0u != (I2S_backup.enableState & I2S_TX_EN))
 147              		.loc 1 125 0
 148 0014 044B     		ldr	r3, .L9
 149 0016 1B78     		ldrb	r3, [r3]	@ zero_extendqisi2
 150 0018 03F00103 		and	r3, r3, #1
 151 001c 002B     		cmp	r3, #0
 152 001e 01D0     		beq	.L8
 126:Generated_Source\PSoC5/I2S_PM.c ****             {
 127:Generated_Source\PSoC5/I2S_PM.c ****                 I2S_EnableTx();
 153              		.loc 1 127 0
 154 0020 FFF7FEFF 		bl	I2S_EnableTx
 155              	.L8:
 128:Generated_Source\PSoC5/I2S_PM.c ****             }
 129:Generated_Source\PSoC5/I2S_PM.c ****         #endif /* (I2S_TX_DIRECTION_ENABLE) */
 130:Generated_Source\PSoC5/I2S_PM.c ****         
ARM GAS  C:\Users\pearlstl\AppData\Local\Temp\ccNrHr47.s 			page 6


 131:Generated_Source\PSoC5/I2S_PM.c ****         #if(I2S_RX_DIRECTION_ENABLE)
 132:Generated_Source\PSoC5/I2S_PM.c ****             if(0u != (I2S_backup.enableState & I2S_RX_EN))
 133:Generated_Source\PSoC5/I2S_PM.c ****             {
 134:Generated_Source\PSoC5/I2S_PM.c ****                 I2S_EnableRx();
 135:Generated_Source\PSoC5/I2S_PM.c ****             }
 136:Generated_Source\PSoC5/I2S_PM.c ****         #endif /* (I2S_RX_DIRECTION_ENABLE) */
 137:Generated_Source\PSoC5/I2S_PM.c ****     }
 138:Generated_Source\PSoC5/I2S_PM.c **** }
 156              		.loc 1 138 0
 157 0024 00BF     		nop
 158 0026 80BD     		pop	{r7, pc}
 159              	.L10:
 160              		.align	2
 161              	.L9:
 162 0028 00000000 		.word	I2S_backup
 163              		.cfi_endproc
 164              	.LFE3:
 165              		.size	I2S_Wakeup, .-I2S_Wakeup
 166              		.text
 167              	.Letext0:
 168              		.file 2 "Generated_Source\\PSoC5\\cytypes.h"
 169              		.file 3 "Generated_Source\\PSoC5\\I2S.h"