ARM GAS  C:\Users\pearlstl\AppData\Local\Temp\ccy6hbxj.s 			page 1


   1              		.syntax unified
   2              		.cpu cortex-m3
   3              		.fpu softvfp
   4              		.eabi_attribute 20, 1
   5              		.eabi_attribute 21, 1
   6              		.eabi_attribute 23, 3
   7              		.eabi_attribute 24, 1
   8              		.eabi_attribute 25, 1
   9              		.eabi_attribute 26, 1
  10              		.eabi_attribute 30, 6
  11              		.eabi_attribute 34, 1
  12              		.eabi_attribute 18, 4
  13              		.thumb
  14              		.syntax unified
  15              		.file	"isr_i2s_tx.c"
  16              		.text
  17              	.Ltext0:
  18              		.cfi_sections	.debug_frame
  19              		.section	.text.isr_i2s_tx_Start,"ax",%progbits
  20              		.align	2
  21              		.global	isr_i2s_tx_Start
  22              		.thumb
  23              		.thumb_func
  24              		.type	isr_i2s_tx_Start, %function
  25              	isr_i2s_tx_Start:
  26              	.LFB63:
  27              		.file 1 "Generated_Source\\PSoC5\\isr_i2s_tx.c"
   1:Generated_Source\PSoC5/isr_i2s_tx.c **** /*******************************************************************************
   2:Generated_Source\PSoC5/isr_i2s_tx.c **** * File Name: isr_i2s_tx.c  
   3:Generated_Source\PSoC5/isr_i2s_tx.c **** * Version 1.70
   4:Generated_Source\PSoC5/isr_i2s_tx.c **** *
   5:Generated_Source\PSoC5/isr_i2s_tx.c **** *  Description:
   6:Generated_Source\PSoC5/isr_i2s_tx.c **** *   API for controlling the state of an interrupt.
   7:Generated_Source\PSoC5/isr_i2s_tx.c **** *
   8:Generated_Source\PSoC5/isr_i2s_tx.c **** *
   9:Generated_Source\PSoC5/isr_i2s_tx.c **** *  Note:
  10:Generated_Source\PSoC5/isr_i2s_tx.c **** *
  11:Generated_Source\PSoC5/isr_i2s_tx.c **** ********************************************************************************
  12:Generated_Source\PSoC5/isr_i2s_tx.c **** * Copyright 2008-2015, Cypress Semiconductor Corporation.  All rights reserved.
  13:Generated_Source\PSoC5/isr_i2s_tx.c **** * You may use this file only in accordance with the license, terms, conditions, 
  14:Generated_Source\PSoC5/isr_i2s_tx.c **** * disclaimers, and limitations in the end user license agreement accompanying 
  15:Generated_Source\PSoC5/isr_i2s_tx.c **** * the software package with which this file was provided.
  16:Generated_Source\PSoC5/isr_i2s_tx.c **** *******************************************************************************/
  17:Generated_Source\PSoC5/isr_i2s_tx.c **** 
  18:Generated_Source\PSoC5/isr_i2s_tx.c **** 
  19:Generated_Source\PSoC5/isr_i2s_tx.c **** #include <cydevice_trm.h>
  20:Generated_Source\PSoC5/isr_i2s_tx.c **** #include <CyLib.h>
  21:Generated_Source\PSoC5/isr_i2s_tx.c **** #include <isr_i2s_tx.h>
  22:Generated_Source\PSoC5/isr_i2s_tx.c **** #include "cyapicallbacks.h"
  23:Generated_Source\PSoC5/isr_i2s_tx.c **** 
  24:Generated_Source\PSoC5/isr_i2s_tx.c **** #if !defined(isr_i2s_tx__REMOVED) /* Check for removal by optimization */
  25:Generated_Source\PSoC5/isr_i2s_tx.c **** 
  26:Generated_Source\PSoC5/isr_i2s_tx.c **** /*******************************************************************************
  27:Generated_Source\PSoC5/isr_i2s_tx.c **** *  Place your includes, defines and code here 
  28:Generated_Source\PSoC5/isr_i2s_tx.c **** ********************************************************************************/
  29:Generated_Source\PSoC5/isr_i2s_tx.c **** /* `#START isr_i2s_tx_intc` */
  30:Generated_Source\PSoC5/isr_i2s_tx.c **** #include "project.h"
ARM GAS  C:\Users\pearlstl\AppData\Local\Temp\ccy6hbxj.s 			page 2


  31:Generated_Source\PSoC5/isr_i2s_tx.c **** /* `#END` */
  32:Generated_Source\PSoC5/isr_i2s_tx.c **** 
  33:Generated_Source\PSoC5/isr_i2s_tx.c **** #ifndef CYINT_IRQ_BASE
  34:Generated_Source\PSoC5/isr_i2s_tx.c **** #define CYINT_IRQ_BASE      16
  35:Generated_Source\PSoC5/isr_i2s_tx.c **** #endif /* CYINT_IRQ_BASE */
  36:Generated_Source\PSoC5/isr_i2s_tx.c **** #ifndef CYINT_VECT_TABLE
  37:Generated_Source\PSoC5/isr_i2s_tx.c **** #define CYINT_VECT_TABLE    ((cyisraddress **) CYREG_NVIC_VECT_OFFSET)
  38:Generated_Source\PSoC5/isr_i2s_tx.c **** #endif /* CYINT_VECT_TABLE */
  39:Generated_Source\PSoC5/isr_i2s_tx.c **** 
  40:Generated_Source\PSoC5/isr_i2s_tx.c **** /* Declared in startup, used to set unused interrupts to. */
  41:Generated_Source\PSoC5/isr_i2s_tx.c **** CY_ISR_PROTO(IntDefaultHandler);
  42:Generated_Source\PSoC5/isr_i2s_tx.c **** 
  43:Generated_Source\PSoC5/isr_i2s_tx.c **** 
  44:Generated_Source\PSoC5/isr_i2s_tx.c **** /*******************************************************************************
  45:Generated_Source\PSoC5/isr_i2s_tx.c **** * Function Name: isr_i2s_tx_Start
  46:Generated_Source\PSoC5/isr_i2s_tx.c **** ********************************************************************************
  47:Generated_Source\PSoC5/isr_i2s_tx.c **** *
  48:Generated_Source\PSoC5/isr_i2s_tx.c **** * Summary:
  49:Generated_Source\PSoC5/isr_i2s_tx.c **** *  Set up the interrupt and enable it. This function disables the interrupt, 
  50:Generated_Source\PSoC5/isr_i2s_tx.c **** *  sets the default interrupt vector, sets the priority from the value in the
  51:Generated_Source\PSoC5/isr_i2s_tx.c **** *  Design Wide Resources Interrupt Editor, then enables the interrupt to the 
  52:Generated_Source\PSoC5/isr_i2s_tx.c **** *  interrupt controller.
  53:Generated_Source\PSoC5/isr_i2s_tx.c **** *
  54:Generated_Source\PSoC5/isr_i2s_tx.c **** * Parameters:  
  55:Generated_Source\PSoC5/isr_i2s_tx.c **** *   None
  56:Generated_Source\PSoC5/isr_i2s_tx.c **** *
  57:Generated_Source\PSoC5/isr_i2s_tx.c **** * Return:
  58:Generated_Source\PSoC5/isr_i2s_tx.c **** *   None
  59:Generated_Source\PSoC5/isr_i2s_tx.c **** *
  60:Generated_Source\PSoC5/isr_i2s_tx.c **** *******************************************************************************/
  61:Generated_Source\PSoC5/isr_i2s_tx.c **** void isr_i2s_tx_Start(void)
  62:Generated_Source\PSoC5/isr_i2s_tx.c **** {
  28              		.loc 1 62 0
  29              		.cfi_startproc
  30              		@ args = 0, pretend = 0, frame = 0
  31              		@ frame_needed = 1, uses_anonymous_args = 0
  32 0000 80B5     		push	{r7, lr}
  33              		.cfi_def_cfa_offset 8
  34              		.cfi_offset 7, -8
  35              		.cfi_offset 14, -4
  36 0002 00AF     		add	r7, sp, #0
  37              		.cfi_def_cfa_register 7
  63:Generated_Source\PSoC5/isr_i2s_tx.c ****     /* For all we know the interrupt is active. */
  64:Generated_Source\PSoC5/isr_i2s_tx.c ****     isr_i2s_tx_Disable();
  38              		.loc 1 64 0
  39 0004 FFF7FEFF 		bl	isr_i2s_tx_Disable
  65:Generated_Source\PSoC5/isr_i2s_tx.c **** 
  66:Generated_Source\PSoC5/isr_i2s_tx.c ****     /* Set the ISR to point to the isr_i2s_tx Interrupt. */
  67:Generated_Source\PSoC5/isr_i2s_tx.c ****     isr_i2s_tx_SetVector(&isr_i2s_tx_Interrupt);
  40              		.loc 1 67 0
  41 0008 0448     		ldr	r0, .L2
  42 000a FFF7FEFF 		bl	isr_i2s_tx_SetVector
  68:Generated_Source\PSoC5/isr_i2s_tx.c **** 
  69:Generated_Source\PSoC5/isr_i2s_tx.c ****     /* Set the priority. */
  70:Generated_Source\PSoC5/isr_i2s_tx.c ****     isr_i2s_tx_SetPriority((uint8)isr_i2s_tx_INTC_PRIOR_NUMBER);
  43              		.loc 1 70 0
  44 000e 0720     		movs	r0, #7
ARM GAS  C:\Users\pearlstl\AppData\Local\Temp\ccy6hbxj.s 			page 3


  45 0010 FFF7FEFF 		bl	isr_i2s_tx_SetPriority
  71:Generated_Source\PSoC5/isr_i2s_tx.c **** 
  72:Generated_Source\PSoC5/isr_i2s_tx.c ****     /* Enable it. */
  73:Generated_Source\PSoC5/isr_i2s_tx.c ****     isr_i2s_tx_Enable();
  46              		.loc 1 73 0
  47 0014 FFF7FEFF 		bl	isr_i2s_tx_Enable
  74:Generated_Source\PSoC5/isr_i2s_tx.c **** }
  48              		.loc 1 74 0
  49 0018 00BF     		nop
  50 001a 80BD     		pop	{r7, pc}
  51              	.L3:
  52              		.align	2
  53              	.L2:
  54 001c 00000000 		.word	isr_i2s_tx_Interrupt
  55              		.cfi_endproc
  56              	.LFE63:
  57              		.size	isr_i2s_tx_Start, .-isr_i2s_tx_Start
  58              		.section	.text.isr_i2s_tx_StartEx,"ax",%progbits
  59              		.align	2
  60              		.global	isr_i2s_tx_StartEx
  61              		.thumb
  62              		.thumb_func
  63              		.type	isr_i2s_tx_StartEx, %function
  64              	isr_i2s_tx_StartEx:
  65              	.LFB64:
  75:Generated_Source\PSoC5/isr_i2s_tx.c **** 
  76:Generated_Source\PSoC5/isr_i2s_tx.c **** 
  77:Generated_Source\PSoC5/isr_i2s_tx.c **** /*******************************************************************************
  78:Generated_Source\PSoC5/isr_i2s_tx.c **** * Function Name: isr_i2s_tx_StartEx
  79:Generated_Source\PSoC5/isr_i2s_tx.c **** ********************************************************************************
  80:Generated_Source\PSoC5/isr_i2s_tx.c **** *
  81:Generated_Source\PSoC5/isr_i2s_tx.c **** * Summary:
  82:Generated_Source\PSoC5/isr_i2s_tx.c **** *  Sets up the interrupt and enables it. This function disables the interrupt,
  83:Generated_Source\PSoC5/isr_i2s_tx.c **** *  sets the interrupt vector based on the address passed in, sets the priority 
  84:Generated_Source\PSoC5/isr_i2s_tx.c **** *  from the value in the Design Wide Resources Interrupt Editor, then enables 
  85:Generated_Source\PSoC5/isr_i2s_tx.c **** *  the interrupt to the interrupt controller.
  86:Generated_Source\PSoC5/isr_i2s_tx.c **** *  
  87:Generated_Source\PSoC5/isr_i2s_tx.c **** *  When defining ISR functions, the CY_ISR and CY_ISR_PROTO macros should be 
  88:Generated_Source\PSoC5/isr_i2s_tx.c **** *  used to provide consistent definition across compilers:
  89:Generated_Source\PSoC5/isr_i2s_tx.c **** *  
  90:Generated_Source\PSoC5/isr_i2s_tx.c **** *  Function definition example:
  91:Generated_Source\PSoC5/isr_i2s_tx.c **** *   CY_ISR(MyISR)
  92:Generated_Source\PSoC5/isr_i2s_tx.c **** *   {
  93:Generated_Source\PSoC5/isr_i2s_tx.c **** *   }
  94:Generated_Source\PSoC5/isr_i2s_tx.c **** *   Function prototype example:
  95:Generated_Source\PSoC5/isr_i2s_tx.c **** *   CY_ISR_PROTO(MyISR);
  96:Generated_Source\PSoC5/isr_i2s_tx.c **** *
  97:Generated_Source\PSoC5/isr_i2s_tx.c **** * Parameters:  
  98:Generated_Source\PSoC5/isr_i2s_tx.c **** *   address: Address of the ISR to set in the interrupt vector table.
  99:Generated_Source\PSoC5/isr_i2s_tx.c **** *
 100:Generated_Source\PSoC5/isr_i2s_tx.c **** * Return:
 101:Generated_Source\PSoC5/isr_i2s_tx.c **** *   None
 102:Generated_Source\PSoC5/isr_i2s_tx.c **** *
 103:Generated_Source\PSoC5/isr_i2s_tx.c **** *******************************************************************************/
 104:Generated_Source\PSoC5/isr_i2s_tx.c **** void isr_i2s_tx_StartEx(cyisraddress address)
 105:Generated_Source\PSoC5/isr_i2s_tx.c **** {
  66              		.loc 1 105 0
ARM GAS  C:\Users\pearlstl\AppData\Local\Temp\ccy6hbxj.s 			page 4


  67              		.cfi_startproc
  68              		@ args = 0, pretend = 0, frame = 8
  69              		@ frame_needed = 1, uses_anonymous_args = 0
  70 0000 80B5     		push	{r7, lr}
  71              		.cfi_def_cfa_offset 8
  72              		.cfi_offset 7, -8
  73              		.cfi_offset 14, -4
  74 0002 82B0     		sub	sp, sp, #8
  75              		.cfi_def_cfa_offset 16
  76 0004 00AF     		add	r7, sp, #0
  77              		.cfi_def_cfa_register 7
  78 0006 7860     		str	r0, [r7, #4]
 106:Generated_Source\PSoC5/isr_i2s_tx.c ****     /* For all we know the interrupt is active. */
 107:Generated_Source\PSoC5/isr_i2s_tx.c ****     isr_i2s_tx_Disable();
  79              		.loc 1 107 0
  80 0008 FFF7FEFF 		bl	isr_i2s_tx_Disable
 108:Generated_Source\PSoC5/isr_i2s_tx.c **** 
 109:Generated_Source\PSoC5/isr_i2s_tx.c ****     /* Set the ISR to point to the isr_i2s_tx Interrupt. */
 110:Generated_Source\PSoC5/isr_i2s_tx.c ****     isr_i2s_tx_SetVector(address);
  81              		.loc 1 110 0
  82 000c 7868     		ldr	r0, [r7, #4]
  83 000e FFF7FEFF 		bl	isr_i2s_tx_SetVector
 111:Generated_Source\PSoC5/isr_i2s_tx.c **** 
 112:Generated_Source\PSoC5/isr_i2s_tx.c ****     /* Set the priority. */
 113:Generated_Source\PSoC5/isr_i2s_tx.c ****     isr_i2s_tx_SetPriority((uint8)isr_i2s_tx_INTC_PRIOR_NUMBER);
  84              		.loc 1 113 0
  85 0012 0720     		movs	r0, #7
  86 0014 FFF7FEFF 		bl	isr_i2s_tx_SetPriority
 114:Generated_Source\PSoC5/isr_i2s_tx.c **** 
 115:Generated_Source\PSoC5/isr_i2s_tx.c ****     /* Enable it. */
 116:Generated_Source\PSoC5/isr_i2s_tx.c ****     isr_i2s_tx_Enable();
  87              		.loc 1 116 0
  88 0018 FFF7FEFF 		bl	isr_i2s_tx_Enable
 117:Generated_Source\PSoC5/isr_i2s_tx.c **** }
  89              		.loc 1 117 0
  90 001c 00BF     		nop
  91 001e 0837     		adds	r7, r7, #8
  92              		.cfi_def_cfa_offset 8
  93 0020 BD46     		mov	sp, r7
  94              		.cfi_def_cfa_register 13
  95              		@ sp needed
  96 0022 80BD     		pop	{r7, pc}
  97              		.cfi_endproc
  98              	.LFE64:
  99              		.size	isr_i2s_tx_StartEx, .-isr_i2s_tx_StartEx
 100              		.section	.text.isr_i2s_tx_Stop,"ax",%progbits
 101              		.align	2
 102              		.global	isr_i2s_tx_Stop
 103              		.thumb
 104              		.thumb_func
 105              		.type	isr_i2s_tx_Stop, %function
 106              	isr_i2s_tx_Stop:
 107              	.LFB65:
 118:Generated_Source\PSoC5/isr_i2s_tx.c **** 
 119:Generated_Source\PSoC5/isr_i2s_tx.c **** 
 120:Generated_Source\PSoC5/isr_i2s_tx.c **** /*******************************************************************************
 121:Generated_Source\PSoC5/isr_i2s_tx.c **** * Function Name: isr_i2s_tx_Stop
ARM GAS  C:\Users\pearlstl\AppData\Local\Temp\ccy6hbxj.s 			page 5


 122:Generated_Source\PSoC5/isr_i2s_tx.c **** ********************************************************************************
 123:Generated_Source\PSoC5/isr_i2s_tx.c **** *
 124:Generated_Source\PSoC5/isr_i2s_tx.c **** * Summary:
 125:Generated_Source\PSoC5/isr_i2s_tx.c **** *   Disables and removes the interrupt.
 126:Generated_Source\PSoC5/isr_i2s_tx.c **** *
 127:Generated_Source\PSoC5/isr_i2s_tx.c **** * Parameters:  
 128:Generated_Source\PSoC5/isr_i2s_tx.c **** *   None
 129:Generated_Source\PSoC5/isr_i2s_tx.c **** *
 130:Generated_Source\PSoC5/isr_i2s_tx.c **** * Return:
 131:Generated_Source\PSoC5/isr_i2s_tx.c **** *   None
 132:Generated_Source\PSoC5/isr_i2s_tx.c **** *
 133:Generated_Source\PSoC5/isr_i2s_tx.c **** *******************************************************************************/
 134:Generated_Source\PSoC5/isr_i2s_tx.c **** void isr_i2s_tx_Stop(void)
 135:Generated_Source\PSoC5/isr_i2s_tx.c **** {
 108              		.loc 1 135 0
 109              		.cfi_startproc
 110              		@ args = 0, pretend = 0, frame = 0
 111              		@ frame_needed = 1, uses_anonymous_args = 0
 112 0000 80B5     		push	{r7, lr}
 113              		.cfi_def_cfa_offset 8
 114              		.cfi_offset 7, -8
 115              		.cfi_offset 14, -4
 116 0002 00AF     		add	r7, sp, #0
 117              		.cfi_def_cfa_register 7
 136:Generated_Source\PSoC5/isr_i2s_tx.c ****     /* Disable this interrupt. */
 137:Generated_Source\PSoC5/isr_i2s_tx.c ****     isr_i2s_tx_Disable();
 118              		.loc 1 137 0
 119 0004 FFF7FEFF 		bl	isr_i2s_tx_Disable
 138:Generated_Source\PSoC5/isr_i2s_tx.c **** 
 139:Generated_Source\PSoC5/isr_i2s_tx.c ****     /* Set the ISR to point to the passive one. */
 140:Generated_Source\PSoC5/isr_i2s_tx.c ****     isr_i2s_tx_SetVector(&IntDefaultHandler);
 120              		.loc 1 140 0
 121 0008 0248     		ldr	r0, .L6
 122 000a FFF7FEFF 		bl	isr_i2s_tx_SetVector
 141:Generated_Source\PSoC5/isr_i2s_tx.c **** }
 123              		.loc 1 141 0
 124 000e 00BF     		nop
 125 0010 80BD     		pop	{r7, pc}
 126              	.L7:
 127 0012 00BF     		.align	2
 128              	.L6:
 129 0014 00000000 		.word	IntDefaultHandler
 130              		.cfi_endproc
 131              	.LFE65:
 132              		.size	isr_i2s_tx_Stop, .-isr_i2s_tx_Stop
 133              		.section	.text.isr_i2s_tx_Interrupt,"ax",%progbits
 134              		.align	2
 135              		.global	isr_i2s_tx_Interrupt
 136              		.thumb
 137              		.thumb_func
 138              		.type	isr_i2s_tx_Interrupt, %function
 139              	isr_i2s_tx_Interrupt:
 140              	.LFB66:
 142:Generated_Source\PSoC5/isr_i2s_tx.c **** 
 143:Generated_Source\PSoC5/isr_i2s_tx.c **** 
 144:Generated_Source\PSoC5/isr_i2s_tx.c **** /*******************************************************************************
 145:Generated_Source\PSoC5/isr_i2s_tx.c **** * Function Name: isr_i2s_tx_Interrupt
ARM GAS  C:\Users\pearlstl\AppData\Local\Temp\ccy6hbxj.s 			page 6


 146:Generated_Source\PSoC5/isr_i2s_tx.c **** ********************************************************************************
 147:Generated_Source\PSoC5/isr_i2s_tx.c **** *
 148:Generated_Source\PSoC5/isr_i2s_tx.c **** * Summary:
 149:Generated_Source\PSoC5/isr_i2s_tx.c **** *   The default Interrupt Service Routine for isr_i2s_tx.
 150:Generated_Source\PSoC5/isr_i2s_tx.c **** *
 151:Generated_Source\PSoC5/isr_i2s_tx.c **** *   Add custom code between the coments to keep the next version of this file
 152:Generated_Source\PSoC5/isr_i2s_tx.c **** *   from over writting your code.
 153:Generated_Source\PSoC5/isr_i2s_tx.c **** *
 154:Generated_Source\PSoC5/isr_i2s_tx.c **** * Parameters:  
 155:Generated_Source\PSoC5/isr_i2s_tx.c **** *
 156:Generated_Source\PSoC5/isr_i2s_tx.c **** * Return:
 157:Generated_Source\PSoC5/isr_i2s_tx.c **** *   None
 158:Generated_Source\PSoC5/isr_i2s_tx.c **** *
 159:Generated_Source\PSoC5/isr_i2s_tx.c **** *******************************************************************************/
 160:Generated_Source\PSoC5/isr_i2s_tx.c **** CY_ISR(isr_i2s_tx_Interrupt)
 161:Generated_Source\PSoC5/isr_i2s_tx.c **** {
 141              		.loc 1 161 0
 142              		.cfi_startproc
 143              		@ args = 0, pretend = 0, frame = 8
 144              		@ frame_needed = 1, uses_anonymous_args = 0
 145              		@ link register save eliminated.
 146 0000 80B4     		push	{r7}
 147              		.cfi_def_cfa_offset 4
 148              		.cfi_offset 7, -4
 149 0002 83B0     		sub	sp, sp, #12
 150              		.cfi_def_cfa_offset 16
 151 0004 00AF     		add	r7, sp, #0
 152              		.cfi_def_cfa_register 7
 153              	.LBB2:
 162:Generated_Source\PSoC5/isr_i2s_tx.c ****     #ifdef isr_i2s_tx_INTERRUPT_INTERRUPT_CALLBACK
 163:Generated_Source\PSoC5/isr_i2s_tx.c ****         isr_i2s_tx_Interrupt_InterruptCallback();
 164:Generated_Source\PSoC5/isr_i2s_tx.c ****     #endif /* isr_i2s_tx_INTERRUPT_INTERRUPT_CALLBACK */ 
 165:Generated_Source\PSoC5/isr_i2s_tx.c **** 
 166:Generated_Source\PSoC5/isr_i2s_tx.c ****     /*  Place your Interrupt code here. */
 167:Generated_Source\PSoC5/isr_i2s_tx.c ****     /* `#START isr_i2s_tx_Interrupt` */
 168:Generated_Source\PSoC5/isr_i2s_tx.c ****     for (int chan = 0; chan < 2; ++chan)
 154              		.loc 1 168 0
 155 0006 0023     		movs	r3, #0
 156 0008 7B60     		str	r3, [r7, #4]
 157 000a 0EE0     		b	.L9
 158              	.L12:
 159              	.LBB3:
 169:Generated_Source\PSoC5/isr_i2s_tx.c ****         for (int byte_idx = 1; byte_idx >= 0; --byte_idx)
 160              		.loc 1 169 0
 161 000c 0123     		movs	r3, #1
 162 000e 3B60     		str	r3, [r7]
 163 0010 05E0     		b	.L10
 164              	.L11:
 170:Generated_Source\PSoC5/isr_i2s_tx.c **** //                I2S_WriteByte( (value >> (8*byte_idx))& 0xFF, 0);
 171:Generated_Source\PSoC5/isr_i2s_tx.c **** //                I2S_WriteByte( (force_value >> (8*byte_idx))& 0xFF, chan);
 172:Generated_Source\PSoC5/isr_i2s_tx.c ****             I2S_WriteByte( 0xAA, chan);
 165              		.loc 1 172 0 discriminator 3
 166 0012 0A4B     		ldr	r3, .L13
 167 0014 AA22     		movs	r2, #170
 168 0016 1A70     		strb	r2, [r3]
 169:Generated_Source\PSoC5/isr_i2s_tx.c ****         for (int byte_idx = 1; byte_idx >= 0; --byte_idx)
 169              		.loc 1 169 0 discriminator 3
ARM GAS  C:\Users\pearlstl\AppData\Local\Temp\ccy6hbxj.s 			page 7


 170 0018 3B68     		ldr	r3, [r7]
 171 001a 013B     		subs	r3, r3, #1
 172 001c 3B60     		str	r3, [r7]
 173              	.L10:
 169:Generated_Source\PSoC5/isr_i2s_tx.c ****         for (int byte_idx = 1; byte_idx >= 0; --byte_idx)
 174              		.loc 1 169 0 is_stmt 0 discriminator 1
 175 001e 3B68     		ldr	r3, [r7]
 176 0020 002B     		cmp	r3, #0
 177 0022 F6DA     		bge	.L11
 178              	.LBE3:
 168:Generated_Source\PSoC5/isr_i2s_tx.c ****         for (int byte_idx = 1; byte_idx >= 0; --byte_idx)
 179              		.loc 1 168 0 is_stmt 1 discriminator 2
 180 0024 7B68     		ldr	r3, [r7, #4]
 181 0026 0133     		adds	r3, r3, #1
 182 0028 7B60     		str	r3, [r7, #4]
 183              	.L9:
 168:Generated_Source\PSoC5/isr_i2s_tx.c ****         for (int byte_idx = 1; byte_idx >= 0; --byte_idx)
 184              		.loc 1 168 0 is_stmt 0 discriminator 1
 185 002a 7B68     		ldr	r3, [r7, #4]
 186 002c 012B     		cmp	r3, #1
 187 002e EDDD     		ble	.L12
 188              	.LBE2:
 173:Generated_Source\PSoC5/isr_i2s_tx.c ****     
 174:Generated_Source\PSoC5/isr_i2s_tx.c ****     /* `#END` */
 175:Generated_Source\PSoC5/isr_i2s_tx.c **** }
 189              		.loc 1 175 0 is_stmt 1
 190 0030 00BF     		nop
 191 0032 0C37     		adds	r7, r7, #12
 192              		.cfi_def_cfa_offset 4
 193 0034 BD46     		mov	sp, r7
 194              		.cfi_def_cfa_register 13
 195              		@ sp needed
 196 0036 80BC     		pop	{r7}
 197              		.cfi_restore 7
 198              		.cfi_def_cfa_offset 0
 199 0038 7047     		bx	lr
 200              	.L14:
 201 003a 00BF     		.align	2
 202              	.L13:
 203 003c 42640040 		.word	1073767490
 204              		.cfi_endproc
 205              	.LFE66:
 206              		.size	isr_i2s_tx_Interrupt, .-isr_i2s_tx_Interrupt
 207              		.section	.text.isr_i2s_tx_SetVector,"ax",%progbits
 208              		.align	2
 209              		.global	isr_i2s_tx_SetVector
 210              		.thumb
 211              		.thumb_func
 212              		.type	isr_i2s_tx_SetVector, %function
 213              	isr_i2s_tx_SetVector:
 214              	.LFB67:
 176:Generated_Source\PSoC5/isr_i2s_tx.c **** 
 177:Generated_Source\PSoC5/isr_i2s_tx.c **** 
 178:Generated_Source\PSoC5/isr_i2s_tx.c **** /*******************************************************************************
 179:Generated_Source\PSoC5/isr_i2s_tx.c **** * Function Name: isr_i2s_tx_SetVector
 180:Generated_Source\PSoC5/isr_i2s_tx.c **** ********************************************************************************
 181:Generated_Source\PSoC5/isr_i2s_tx.c **** *
ARM GAS  C:\Users\pearlstl\AppData\Local\Temp\ccy6hbxj.s 			page 8


 182:Generated_Source\PSoC5/isr_i2s_tx.c **** * Summary:
 183:Generated_Source\PSoC5/isr_i2s_tx.c **** *   Change the ISR vector for the Interrupt. Note calling isr_i2s_tx_Start
 184:Generated_Source\PSoC5/isr_i2s_tx.c **** *   will override any effect this method would have had. To set the vector 
 185:Generated_Source\PSoC5/isr_i2s_tx.c **** *   before the component has been started use isr_i2s_tx_StartEx instead.
 186:Generated_Source\PSoC5/isr_i2s_tx.c **** * 
 187:Generated_Source\PSoC5/isr_i2s_tx.c **** *   When defining ISR functions, the CY_ISR and CY_ISR_PROTO macros should be 
 188:Generated_Source\PSoC5/isr_i2s_tx.c **** *   used to provide consistent definition across compilers:
 189:Generated_Source\PSoC5/isr_i2s_tx.c **** *
 190:Generated_Source\PSoC5/isr_i2s_tx.c **** *   Function definition example:
 191:Generated_Source\PSoC5/isr_i2s_tx.c **** *   CY_ISR(MyISR)
 192:Generated_Source\PSoC5/isr_i2s_tx.c **** *   {
 193:Generated_Source\PSoC5/isr_i2s_tx.c **** *   }
 194:Generated_Source\PSoC5/isr_i2s_tx.c **** *
 195:Generated_Source\PSoC5/isr_i2s_tx.c **** *   Function prototype example:
 196:Generated_Source\PSoC5/isr_i2s_tx.c **** *     CY_ISR_PROTO(MyISR);
 197:Generated_Source\PSoC5/isr_i2s_tx.c **** *
 198:Generated_Source\PSoC5/isr_i2s_tx.c **** * Parameters:
 199:Generated_Source\PSoC5/isr_i2s_tx.c **** *   address: Address of the ISR to set in the interrupt vector table.
 200:Generated_Source\PSoC5/isr_i2s_tx.c **** *
 201:Generated_Source\PSoC5/isr_i2s_tx.c **** * Return:
 202:Generated_Source\PSoC5/isr_i2s_tx.c **** *   None
 203:Generated_Source\PSoC5/isr_i2s_tx.c **** *
 204:Generated_Source\PSoC5/isr_i2s_tx.c **** *******************************************************************************/
 205:Generated_Source\PSoC5/isr_i2s_tx.c **** void isr_i2s_tx_SetVector(cyisraddress address)
 206:Generated_Source\PSoC5/isr_i2s_tx.c **** {
 215              		.loc 1 206 0
 216              		.cfi_startproc
 217              		@ args = 0, pretend = 0, frame = 16
 218              		@ frame_needed = 1, uses_anonymous_args = 0
 219              		@ link register save eliminated.
 220 0000 80B4     		push	{r7}
 221              		.cfi_def_cfa_offset 4
 222              		.cfi_offset 7, -4
 223 0002 85B0     		sub	sp, sp, #20
 224              		.cfi_def_cfa_offset 24
 225 0004 00AF     		add	r7, sp, #0
 226              		.cfi_def_cfa_register 7
 227 0006 7860     		str	r0, [r7, #4]
 207:Generated_Source\PSoC5/isr_i2s_tx.c ****     cyisraddress * ramVectorTable;
 208:Generated_Source\PSoC5/isr_i2s_tx.c **** 
 209:Generated_Source\PSoC5/isr_i2s_tx.c ****     ramVectorTable = (cyisraddress *) *CYINT_VECT_TABLE;
 228              		.loc 1 209 0
 229 0008 054B     		ldr	r3, .L16
 230 000a 1B68     		ldr	r3, [r3]
 231 000c FB60     		str	r3, [r7, #12]
 210:Generated_Source\PSoC5/isr_i2s_tx.c **** 
 211:Generated_Source\PSoC5/isr_i2s_tx.c ****     ramVectorTable[CYINT_IRQ_BASE + (uint32)isr_i2s_tx__INTC_NUMBER] = address;
 232              		.loc 1 211 0
 233 000e FB68     		ldr	r3, [r7, #12]
 234 0010 4833     		adds	r3, r3, #72
 235 0012 7A68     		ldr	r2, [r7, #4]
 236 0014 1A60     		str	r2, [r3]
 212:Generated_Source\PSoC5/isr_i2s_tx.c **** }
 237              		.loc 1 212 0
 238 0016 00BF     		nop
 239 0018 1437     		adds	r7, r7, #20
 240              		.cfi_def_cfa_offset 4
ARM GAS  C:\Users\pearlstl\AppData\Local\Temp\ccy6hbxj.s 			page 9


 241 001a BD46     		mov	sp, r7
 242              		.cfi_def_cfa_register 13
 243              		@ sp needed
 244 001c 80BC     		pop	{r7}
 245              		.cfi_restore 7
 246              		.cfi_def_cfa_offset 0
 247 001e 7047     		bx	lr
 248              	.L17:
 249              		.align	2
 250              	.L16:
 251 0020 08ED00E0 		.word	-536810232
 252              		.cfi_endproc
 253              	.LFE67:
 254              		.size	isr_i2s_tx_SetVector, .-isr_i2s_tx_SetVector
 255              		.section	.text.isr_i2s_tx_GetVector,"ax",%progbits
 256              		.align	2
 257              		.global	isr_i2s_tx_GetVector
 258              		.thumb
 259              		.thumb_func
 260              		.type	isr_i2s_tx_GetVector, %function
 261              	isr_i2s_tx_GetVector:
 262              	.LFB68:
 213:Generated_Source\PSoC5/isr_i2s_tx.c **** 
 214:Generated_Source\PSoC5/isr_i2s_tx.c **** 
 215:Generated_Source\PSoC5/isr_i2s_tx.c **** /*******************************************************************************
 216:Generated_Source\PSoC5/isr_i2s_tx.c **** * Function Name: isr_i2s_tx_GetVector
 217:Generated_Source\PSoC5/isr_i2s_tx.c **** ********************************************************************************
 218:Generated_Source\PSoC5/isr_i2s_tx.c **** *
 219:Generated_Source\PSoC5/isr_i2s_tx.c **** * Summary:
 220:Generated_Source\PSoC5/isr_i2s_tx.c **** *   Gets the "address" of the current ISR vector for the Interrupt.
 221:Generated_Source\PSoC5/isr_i2s_tx.c **** *
 222:Generated_Source\PSoC5/isr_i2s_tx.c **** * Parameters:
 223:Generated_Source\PSoC5/isr_i2s_tx.c **** *   None
 224:Generated_Source\PSoC5/isr_i2s_tx.c **** *
 225:Generated_Source\PSoC5/isr_i2s_tx.c **** * Return:
 226:Generated_Source\PSoC5/isr_i2s_tx.c **** *   Address of the ISR in the interrupt vector table.
 227:Generated_Source\PSoC5/isr_i2s_tx.c **** *
 228:Generated_Source\PSoC5/isr_i2s_tx.c **** *******************************************************************************/
 229:Generated_Source\PSoC5/isr_i2s_tx.c **** cyisraddress isr_i2s_tx_GetVector(void)
 230:Generated_Source\PSoC5/isr_i2s_tx.c **** {
 263              		.loc 1 230 0
 264              		.cfi_startproc
 265              		@ args = 0, pretend = 0, frame = 8
 266              		@ frame_needed = 1, uses_anonymous_args = 0
 267              		@ link register save eliminated.
 268 0000 80B4     		push	{r7}
 269              		.cfi_def_cfa_offset 4
 270              		.cfi_offset 7, -4
 271 0002 83B0     		sub	sp, sp, #12
 272              		.cfi_def_cfa_offset 16
 273 0004 00AF     		add	r7, sp, #0
 274              		.cfi_def_cfa_register 7
 231:Generated_Source\PSoC5/isr_i2s_tx.c ****     cyisraddress * ramVectorTable;
 232:Generated_Source\PSoC5/isr_i2s_tx.c **** 
 233:Generated_Source\PSoC5/isr_i2s_tx.c ****     ramVectorTable = (cyisraddress *) *CYINT_VECT_TABLE;
 275              		.loc 1 233 0
 276 0006 054B     		ldr	r3, .L20
ARM GAS  C:\Users\pearlstl\AppData\Local\Temp\ccy6hbxj.s 			page 10


 277 0008 1B68     		ldr	r3, [r3]
 278 000a 7B60     		str	r3, [r7, #4]
 234:Generated_Source\PSoC5/isr_i2s_tx.c **** 
 235:Generated_Source\PSoC5/isr_i2s_tx.c ****     return ramVectorTable[CYINT_IRQ_BASE + (uint32)isr_i2s_tx__INTC_NUMBER];
 279              		.loc 1 235 0
 280 000c 7B68     		ldr	r3, [r7, #4]
 281 000e 9B6C     		ldr	r3, [r3, #72]
 236:Generated_Source\PSoC5/isr_i2s_tx.c **** }
 282              		.loc 1 236 0
 283 0010 1846     		mov	r0, r3
 284 0012 0C37     		adds	r7, r7, #12
 285              		.cfi_def_cfa_offset 4
 286 0014 BD46     		mov	sp, r7
 287              		.cfi_def_cfa_register 13
 288              		@ sp needed
 289 0016 80BC     		pop	{r7}
 290              		.cfi_restore 7
 291              		.cfi_def_cfa_offset 0
 292 0018 7047     		bx	lr
 293              	.L21:
 294 001a 00BF     		.align	2
 295              	.L20:
 296 001c 08ED00E0 		.word	-536810232
 297              		.cfi_endproc
 298              	.LFE68:
 299              		.size	isr_i2s_tx_GetVector, .-isr_i2s_tx_GetVector
 300              		.section	.text.isr_i2s_tx_SetPriority,"ax",%progbits
 301              		.align	2
 302              		.global	isr_i2s_tx_SetPriority
 303              		.thumb
 304              		.thumb_func
 305              		.type	isr_i2s_tx_SetPriority, %function
 306              	isr_i2s_tx_SetPriority:
 307              	.LFB69:
 237:Generated_Source\PSoC5/isr_i2s_tx.c **** 
 238:Generated_Source\PSoC5/isr_i2s_tx.c **** 
 239:Generated_Source\PSoC5/isr_i2s_tx.c **** /*******************************************************************************
 240:Generated_Source\PSoC5/isr_i2s_tx.c **** * Function Name: isr_i2s_tx_SetPriority
 241:Generated_Source\PSoC5/isr_i2s_tx.c **** ********************************************************************************
 242:Generated_Source\PSoC5/isr_i2s_tx.c **** *
 243:Generated_Source\PSoC5/isr_i2s_tx.c **** * Summary:
 244:Generated_Source\PSoC5/isr_i2s_tx.c **** *   Sets the Priority of the Interrupt. 
 245:Generated_Source\PSoC5/isr_i2s_tx.c **** *
 246:Generated_Source\PSoC5/isr_i2s_tx.c **** *   Note calling isr_i2s_tx_Start or isr_i2s_tx_StartEx will 
 247:Generated_Source\PSoC5/isr_i2s_tx.c **** *   override any effect this API would have had. This API should only be called
 248:Generated_Source\PSoC5/isr_i2s_tx.c **** *   after isr_i2s_tx_Start or isr_i2s_tx_StartEx has been called. 
 249:Generated_Source\PSoC5/isr_i2s_tx.c **** *   To set the initial priority for the component, use the Design-Wide Resources
 250:Generated_Source\PSoC5/isr_i2s_tx.c **** *   Interrupt Editor.
 251:Generated_Source\PSoC5/isr_i2s_tx.c **** *
 252:Generated_Source\PSoC5/isr_i2s_tx.c **** *   Note This API has no effect on Non-maskable interrupt NMI).
 253:Generated_Source\PSoC5/isr_i2s_tx.c **** *
 254:Generated_Source\PSoC5/isr_i2s_tx.c **** * Parameters:
 255:Generated_Source\PSoC5/isr_i2s_tx.c **** *   priority: Priority of the interrupt, 0 being the highest priority
 256:Generated_Source\PSoC5/isr_i2s_tx.c **** *             PSoC 3 and PSoC 5LP: Priority is from 0 to 7.
 257:Generated_Source\PSoC5/isr_i2s_tx.c **** *             PSoC 4: Priority is from 0 to 3.
 258:Generated_Source\PSoC5/isr_i2s_tx.c **** *
 259:Generated_Source\PSoC5/isr_i2s_tx.c **** * Return:
ARM GAS  C:\Users\pearlstl\AppData\Local\Temp\ccy6hbxj.s 			page 11


 260:Generated_Source\PSoC5/isr_i2s_tx.c **** *   None
 261:Generated_Source\PSoC5/isr_i2s_tx.c **** *
 262:Generated_Source\PSoC5/isr_i2s_tx.c **** *******************************************************************************/
 263:Generated_Source\PSoC5/isr_i2s_tx.c **** void isr_i2s_tx_SetPriority(uint8 priority)
 264:Generated_Source\PSoC5/isr_i2s_tx.c **** {
 308              		.loc 1 264 0
 309              		.cfi_startproc
 310              		@ args = 0, pretend = 0, frame = 8
 311              		@ frame_needed = 1, uses_anonymous_args = 0
 312              		@ link register save eliminated.
 313 0000 80B4     		push	{r7}
 314              		.cfi_def_cfa_offset 4
 315              		.cfi_offset 7, -4
 316 0002 83B0     		sub	sp, sp, #12
 317              		.cfi_def_cfa_offset 16
 318 0004 00AF     		add	r7, sp, #0
 319              		.cfi_def_cfa_register 7
 320 0006 0346     		mov	r3, r0
 321 0008 FB71     		strb	r3, [r7, #7]
 265:Generated_Source\PSoC5/isr_i2s_tx.c ****     *isr_i2s_tx_INTC_PRIOR = priority << 5;
 322              		.loc 1 265 0
 323 000a 054A     		ldr	r2, .L23
 324 000c FB79     		ldrb	r3, [r7, #7]
 325 000e 5B01     		lsls	r3, r3, #5
 326 0010 DBB2     		uxtb	r3, r3
 327 0012 1370     		strb	r3, [r2]
 266:Generated_Source\PSoC5/isr_i2s_tx.c **** }
 328              		.loc 1 266 0
 329 0014 00BF     		nop
 330 0016 0C37     		adds	r7, r7, #12
 331              		.cfi_def_cfa_offset 4
 332 0018 BD46     		mov	sp, r7
 333              		.cfi_def_cfa_register 13
 334              		@ sp needed
 335 001a 80BC     		pop	{r7}
 336              		.cfi_restore 7
 337              		.cfi_def_cfa_offset 0
 338 001c 7047     		bx	lr
 339              	.L24:
 340 001e 00BF     		.align	2
 341              	.L23:
 342 0020 02E400E0 		.word	-536812542
 343              		.cfi_endproc
 344              	.LFE69:
 345              		.size	isr_i2s_tx_SetPriority, .-isr_i2s_tx_SetPriority
 346              		.section	.text.isr_i2s_tx_GetPriority,"ax",%progbits
 347              		.align	2
 348              		.global	isr_i2s_tx_GetPriority
 349              		.thumb
 350              		.thumb_func
 351              		.type	isr_i2s_tx_GetPriority, %function
 352              	isr_i2s_tx_GetPriority:
 353              	.LFB70:
 267:Generated_Source\PSoC5/isr_i2s_tx.c **** 
 268:Generated_Source\PSoC5/isr_i2s_tx.c **** 
 269:Generated_Source\PSoC5/isr_i2s_tx.c **** /*******************************************************************************
 270:Generated_Source\PSoC5/isr_i2s_tx.c **** * Function Name: isr_i2s_tx_GetPriority
ARM GAS  C:\Users\pearlstl\AppData\Local\Temp\ccy6hbxj.s 			page 12


 271:Generated_Source\PSoC5/isr_i2s_tx.c **** ********************************************************************************
 272:Generated_Source\PSoC5/isr_i2s_tx.c **** *
 273:Generated_Source\PSoC5/isr_i2s_tx.c **** * Summary:
 274:Generated_Source\PSoC5/isr_i2s_tx.c **** *   Gets the Priority of the Interrupt.
 275:Generated_Source\PSoC5/isr_i2s_tx.c **** *
 276:Generated_Source\PSoC5/isr_i2s_tx.c **** * Parameters:
 277:Generated_Source\PSoC5/isr_i2s_tx.c **** *   None
 278:Generated_Source\PSoC5/isr_i2s_tx.c **** *
 279:Generated_Source\PSoC5/isr_i2s_tx.c **** * Return:
 280:Generated_Source\PSoC5/isr_i2s_tx.c **** *   Priority of the interrupt, 0 being the highest priority
 281:Generated_Source\PSoC5/isr_i2s_tx.c **** *    PSoC 3 and PSoC 5LP: Priority is from 0 to 7.
 282:Generated_Source\PSoC5/isr_i2s_tx.c **** *    PSoC 4: Priority is from 0 to 3.
 283:Generated_Source\PSoC5/isr_i2s_tx.c **** *
 284:Generated_Source\PSoC5/isr_i2s_tx.c **** *******************************************************************************/
 285:Generated_Source\PSoC5/isr_i2s_tx.c **** uint8 isr_i2s_tx_GetPriority(void)
 286:Generated_Source\PSoC5/isr_i2s_tx.c **** {
 354              		.loc 1 286 0
 355              		.cfi_startproc
 356              		@ args = 0, pretend = 0, frame = 8
 357              		@ frame_needed = 1, uses_anonymous_args = 0
 358              		@ link register save eliminated.
 359 0000 80B4     		push	{r7}
 360              		.cfi_def_cfa_offset 4
 361              		.cfi_offset 7, -4
 362 0002 83B0     		sub	sp, sp, #12
 363              		.cfi_def_cfa_offset 16
 364 0004 00AF     		add	r7, sp, #0
 365              		.cfi_def_cfa_register 7
 287:Generated_Source\PSoC5/isr_i2s_tx.c ****     uint8 priority;
 288:Generated_Source\PSoC5/isr_i2s_tx.c **** 
 289:Generated_Source\PSoC5/isr_i2s_tx.c **** 
 290:Generated_Source\PSoC5/isr_i2s_tx.c ****     priority = *isr_i2s_tx_INTC_PRIOR >> 5;
 366              		.loc 1 290 0
 367 0006 054B     		ldr	r3, .L27
 368 0008 1B78     		ldrb	r3, [r3]
 369 000a DBB2     		uxtb	r3, r3
 370 000c 5B09     		lsrs	r3, r3, #5
 371 000e FB71     		strb	r3, [r7, #7]
 291:Generated_Source\PSoC5/isr_i2s_tx.c **** 
 292:Generated_Source\PSoC5/isr_i2s_tx.c ****     return priority;
 372              		.loc 1 292 0
 373 0010 FB79     		ldrb	r3, [r7, #7]	@ zero_extendqisi2
 293:Generated_Source\PSoC5/isr_i2s_tx.c **** }
 374              		.loc 1 293 0
 375 0012 1846     		mov	r0, r3
 376 0014 0C37     		adds	r7, r7, #12
 377              		.cfi_def_cfa_offset 4
 378 0016 BD46     		mov	sp, r7
 379              		.cfi_def_cfa_register 13
 380              		@ sp needed
 381 0018 80BC     		pop	{r7}
 382              		.cfi_restore 7
 383              		.cfi_def_cfa_offset 0
 384 001a 7047     		bx	lr
 385              	.L28:
 386              		.align	2
 387              	.L27:
ARM GAS  C:\Users\pearlstl\AppData\Local\Temp\ccy6hbxj.s 			page 13


 388 001c 02E400E0 		.word	-536812542
 389              		.cfi_endproc
 390              	.LFE70:
 391              		.size	isr_i2s_tx_GetPriority, .-isr_i2s_tx_GetPriority
 392              		.section	.text.isr_i2s_tx_Enable,"ax",%progbits
 393              		.align	2
 394              		.global	isr_i2s_tx_Enable
 395              		.thumb
 396              		.thumb_func
 397              		.type	isr_i2s_tx_Enable, %function
 398              	isr_i2s_tx_Enable:
 399              	.LFB71:
 294:Generated_Source\PSoC5/isr_i2s_tx.c **** 
 295:Generated_Source\PSoC5/isr_i2s_tx.c **** 
 296:Generated_Source\PSoC5/isr_i2s_tx.c **** /*******************************************************************************
 297:Generated_Source\PSoC5/isr_i2s_tx.c **** * Function Name: isr_i2s_tx_Enable
 298:Generated_Source\PSoC5/isr_i2s_tx.c **** ********************************************************************************
 299:Generated_Source\PSoC5/isr_i2s_tx.c **** *
 300:Generated_Source\PSoC5/isr_i2s_tx.c **** * Summary:
 301:Generated_Source\PSoC5/isr_i2s_tx.c **** *   Enables the interrupt to the interrupt controller. Do not call this function
 302:Generated_Source\PSoC5/isr_i2s_tx.c **** *   unless ISR_Start() has been called or the functionality of the ISR_Start() 
 303:Generated_Source\PSoC5/isr_i2s_tx.c **** *   function, which sets the vector and the priority, has been called.
 304:Generated_Source\PSoC5/isr_i2s_tx.c **** *
 305:Generated_Source\PSoC5/isr_i2s_tx.c **** * Parameters:
 306:Generated_Source\PSoC5/isr_i2s_tx.c **** *   None
 307:Generated_Source\PSoC5/isr_i2s_tx.c **** *
 308:Generated_Source\PSoC5/isr_i2s_tx.c **** * Return:
 309:Generated_Source\PSoC5/isr_i2s_tx.c **** *   None
 310:Generated_Source\PSoC5/isr_i2s_tx.c **** *
 311:Generated_Source\PSoC5/isr_i2s_tx.c **** *******************************************************************************/
 312:Generated_Source\PSoC5/isr_i2s_tx.c **** void isr_i2s_tx_Enable(void)
 313:Generated_Source\PSoC5/isr_i2s_tx.c **** {
 400              		.loc 1 313 0
 401              		.cfi_startproc
 402              		@ args = 0, pretend = 0, frame = 0
 403              		@ frame_needed = 1, uses_anonymous_args = 0
 404              		@ link register save eliminated.
 405 0000 80B4     		push	{r7}
 406              		.cfi_def_cfa_offset 4
 407              		.cfi_offset 7, -4
 408 0002 00AF     		add	r7, sp, #0
 409              		.cfi_def_cfa_register 7
 314:Generated_Source\PSoC5/isr_i2s_tx.c ****     /* Enable the general interrupt. */
 315:Generated_Source\PSoC5/isr_i2s_tx.c ****     *isr_i2s_tx_INTC_SET_EN = isr_i2s_tx__INTC_MASK;
 410              		.loc 1 315 0
 411 0004 034B     		ldr	r3, .L30
 412 0006 0422     		movs	r2, #4
 413 0008 1A60     		str	r2, [r3]
 316:Generated_Source\PSoC5/isr_i2s_tx.c **** }
 414              		.loc 1 316 0
 415 000a 00BF     		nop
 416 000c BD46     		mov	sp, r7
 417              		.cfi_def_cfa_register 13
 418              		@ sp needed
 419 000e 80BC     		pop	{r7}
 420              		.cfi_restore 7
 421              		.cfi_def_cfa_offset 0
ARM GAS  C:\Users\pearlstl\AppData\Local\Temp\ccy6hbxj.s 			page 14


 422 0010 7047     		bx	lr
 423              	.L31:
 424 0012 00BF     		.align	2
 425              	.L30:
 426 0014 00E100E0 		.word	-536813312
 427              		.cfi_endproc
 428              	.LFE71:
 429              		.size	isr_i2s_tx_Enable, .-isr_i2s_tx_Enable
 430              		.section	.text.isr_i2s_tx_GetState,"ax",%progbits
 431              		.align	2
 432              		.global	isr_i2s_tx_GetState
 433              		.thumb
 434              		.thumb_func
 435              		.type	isr_i2s_tx_GetState, %function
 436              	isr_i2s_tx_GetState:
 437              	.LFB72:
 317:Generated_Source\PSoC5/isr_i2s_tx.c **** 
 318:Generated_Source\PSoC5/isr_i2s_tx.c **** 
 319:Generated_Source\PSoC5/isr_i2s_tx.c **** /*******************************************************************************
 320:Generated_Source\PSoC5/isr_i2s_tx.c **** * Function Name: isr_i2s_tx_GetState
 321:Generated_Source\PSoC5/isr_i2s_tx.c **** ********************************************************************************
 322:Generated_Source\PSoC5/isr_i2s_tx.c **** *
 323:Generated_Source\PSoC5/isr_i2s_tx.c **** * Summary:
 324:Generated_Source\PSoC5/isr_i2s_tx.c **** *   Gets the state (enabled, disabled) of the Interrupt.
 325:Generated_Source\PSoC5/isr_i2s_tx.c **** *
 326:Generated_Source\PSoC5/isr_i2s_tx.c **** * Parameters:
 327:Generated_Source\PSoC5/isr_i2s_tx.c **** *   None
 328:Generated_Source\PSoC5/isr_i2s_tx.c **** *
 329:Generated_Source\PSoC5/isr_i2s_tx.c **** * Return:
 330:Generated_Source\PSoC5/isr_i2s_tx.c **** *   1 if enabled, 0 if disabled.
 331:Generated_Source\PSoC5/isr_i2s_tx.c **** *
 332:Generated_Source\PSoC5/isr_i2s_tx.c **** *******************************************************************************/
 333:Generated_Source\PSoC5/isr_i2s_tx.c **** uint8 isr_i2s_tx_GetState(void)
 334:Generated_Source\PSoC5/isr_i2s_tx.c **** {
 438              		.loc 1 334 0
 439              		.cfi_startproc
 440              		@ args = 0, pretend = 0, frame = 0
 441              		@ frame_needed = 1, uses_anonymous_args = 0
 442              		@ link register save eliminated.
 443 0000 80B4     		push	{r7}
 444              		.cfi_def_cfa_offset 4
 445              		.cfi_offset 7, -4
 446 0002 00AF     		add	r7, sp, #0
 447              		.cfi_def_cfa_register 7
 335:Generated_Source\PSoC5/isr_i2s_tx.c ****     /* Get the state of the general interrupt. */
 336:Generated_Source\PSoC5/isr_i2s_tx.c ****     return ((*isr_i2s_tx_INTC_SET_EN & (uint32)isr_i2s_tx__INTC_MASK) != 0u) ? 1u:0u;
 448              		.loc 1 336 0
 449 0004 064B     		ldr	r3, .L36
 450 0006 1B68     		ldr	r3, [r3]
 451 0008 03F00403 		and	r3, r3, #4
 452 000c 002B     		cmp	r3, #0
 453 000e 01D0     		beq	.L33
 454              		.loc 1 336 0 is_stmt 0 discriminator 1
 455 0010 0123     		movs	r3, #1
 456 0012 00E0     		b	.L34
 457              	.L33:
 458              		.loc 1 336 0 discriminator 2
ARM GAS  C:\Users\pearlstl\AppData\Local\Temp\ccy6hbxj.s 			page 15


 459 0014 0023     		movs	r3, #0
 460              	.L34:
 337:Generated_Source\PSoC5/isr_i2s_tx.c **** }
 461              		.loc 1 337 0 is_stmt 1 discriminator 4
 462 0016 1846     		mov	r0, r3
 463 0018 BD46     		mov	sp, r7
 464              		.cfi_def_cfa_register 13
 465              		@ sp needed
 466 001a 80BC     		pop	{r7}
 467              		.cfi_restore 7
 468              		.cfi_def_cfa_offset 0
 469 001c 7047     		bx	lr
 470              	.L37:
 471 001e 00BF     		.align	2
 472              	.L36:
 473 0020 00E100E0 		.word	-536813312
 474              		.cfi_endproc
 475              	.LFE72:
 476              		.size	isr_i2s_tx_GetState, .-isr_i2s_tx_GetState
 477              		.section	.text.isr_i2s_tx_Disable,"ax",%progbits
 478              		.align	2
 479              		.global	isr_i2s_tx_Disable
 480              		.thumb
 481              		.thumb_func
 482              		.type	isr_i2s_tx_Disable, %function
 483              	isr_i2s_tx_Disable:
 484              	.LFB73:
 338:Generated_Source\PSoC5/isr_i2s_tx.c **** 
 339:Generated_Source\PSoC5/isr_i2s_tx.c **** 
 340:Generated_Source\PSoC5/isr_i2s_tx.c **** /*******************************************************************************
 341:Generated_Source\PSoC5/isr_i2s_tx.c **** * Function Name: isr_i2s_tx_Disable
 342:Generated_Source\PSoC5/isr_i2s_tx.c **** ********************************************************************************
 343:Generated_Source\PSoC5/isr_i2s_tx.c **** *
 344:Generated_Source\PSoC5/isr_i2s_tx.c **** * Summary:
 345:Generated_Source\PSoC5/isr_i2s_tx.c **** *   Disables the Interrupt in the interrupt controller.
 346:Generated_Source\PSoC5/isr_i2s_tx.c **** *
 347:Generated_Source\PSoC5/isr_i2s_tx.c **** * Parameters:
 348:Generated_Source\PSoC5/isr_i2s_tx.c **** *   None
 349:Generated_Source\PSoC5/isr_i2s_tx.c **** *
 350:Generated_Source\PSoC5/isr_i2s_tx.c **** * Return:
 351:Generated_Source\PSoC5/isr_i2s_tx.c **** *   None
 352:Generated_Source\PSoC5/isr_i2s_tx.c **** *
 353:Generated_Source\PSoC5/isr_i2s_tx.c **** *******************************************************************************/
 354:Generated_Source\PSoC5/isr_i2s_tx.c **** void isr_i2s_tx_Disable(void)
 355:Generated_Source\PSoC5/isr_i2s_tx.c **** {
 485              		.loc 1 355 0
 486              		.cfi_startproc
 487              		@ args = 0, pretend = 0, frame = 0
 488              		@ frame_needed = 1, uses_anonymous_args = 0
 489              		@ link register save eliminated.
 490 0000 80B4     		push	{r7}
 491              		.cfi_def_cfa_offset 4
 492              		.cfi_offset 7, -4
 493 0002 00AF     		add	r7, sp, #0
 494              		.cfi_def_cfa_register 7
 356:Generated_Source\PSoC5/isr_i2s_tx.c ****     /* Disable the general interrupt. */
 357:Generated_Source\PSoC5/isr_i2s_tx.c ****     *isr_i2s_tx_INTC_CLR_EN = isr_i2s_tx__INTC_MASK;
ARM GAS  C:\Users\pearlstl\AppData\Local\Temp\ccy6hbxj.s 			page 16


 495              		.loc 1 357 0
 496 0004 034B     		ldr	r3, .L39
 497 0006 0422     		movs	r2, #4
 498 0008 1A60     		str	r2, [r3]
 358:Generated_Source\PSoC5/isr_i2s_tx.c **** }
 499              		.loc 1 358 0
 500 000a 00BF     		nop
 501 000c BD46     		mov	sp, r7
 502              		.cfi_def_cfa_register 13
 503              		@ sp needed
 504 000e 80BC     		pop	{r7}
 505              		.cfi_restore 7
 506              		.cfi_def_cfa_offset 0
 507 0010 7047     		bx	lr
 508              	.L40:
 509 0012 00BF     		.align	2
 510              	.L39:
 511 0014 80E100E0 		.word	-536813184
 512              		.cfi_endproc
 513              	.LFE73:
 514              		.size	isr_i2s_tx_Disable, .-isr_i2s_tx_Disable
 515              		.section	.text.isr_i2s_tx_SetPending,"ax",%progbits
 516              		.align	2
 517              		.global	isr_i2s_tx_SetPending
 518              		.thumb
 519              		.thumb_func
 520              		.type	isr_i2s_tx_SetPending, %function
 521              	isr_i2s_tx_SetPending:
 522              	.LFB74:
 359:Generated_Source\PSoC5/isr_i2s_tx.c **** 
 360:Generated_Source\PSoC5/isr_i2s_tx.c **** 
 361:Generated_Source\PSoC5/isr_i2s_tx.c **** /*******************************************************************************
 362:Generated_Source\PSoC5/isr_i2s_tx.c **** * Function Name: isr_i2s_tx_SetPending
 363:Generated_Source\PSoC5/isr_i2s_tx.c **** ********************************************************************************
 364:Generated_Source\PSoC5/isr_i2s_tx.c **** *
 365:Generated_Source\PSoC5/isr_i2s_tx.c **** * Summary:
 366:Generated_Source\PSoC5/isr_i2s_tx.c **** *   Causes the Interrupt to enter the pending state, a software method of
 367:Generated_Source\PSoC5/isr_i2s_tx.c **** *   generating the interrupt.
 368:Generated_Source\PSoC5/isr_i2s_tx.c **** *
 369:Generated_Source\PSoC5/isr_i2s_tx.c **** * Parameters:
 370:Generated_Source\PSoC5/isr_i2s_tx.c **** *   None
 371:Generated_Source\PSoC5/isr_i2s_tx.c **** *
 372:Generated_Source\PSoC5/isr_i2s_tx.c **** * Return:
 373:Generated_Source\PSoC5/isr_i2s_tx.c **** *   None
 374:Generated_Source\PSoC5/isr_i2s_tx.c **** *
 375:Generated_Source\PSoC5/isr_i2s_tx.c **** * Side Effects:
 376:Generated_Source\PSoC5/isr_i2s_tx.c **** *   If interrupts are enabled and the interrupt is set up properly, the ISR is
 377:Generated_Source\PSoC5/isr_i2s_tx.c **** *   entered (depending on the priority of this interrupt and other pending 
 378:Generated_Source\PSoC5/isr_i2s_tx.c **** *   interrupts).
 379:Generated_Source\PSoC5/isr_i2s_tx.c **** *
 380:Generated_Source\PSoC5/isr_i2s_tx.c **** *******************************************************************************/
 381:Generated_Source\PSoC5/isr_i2s_tx.c **** void isr_i2s_tx_SetPending(void)
 382:Generated_Source\PSoC5/isr_i2s_tx.c **** {
 523              		.loc 1 382 0
 524              		.cfi_startproc
 525              		@ args = 0, pretend = 0, frame = 0
 526              		@ frame_needed = 1, uses_anonymous_args = 0
ARM GAS  C:\Users\pearlstl\AppData\Local\Temp\ccy6hbxj.s 			page 17


 527              		@ link register save eliminated.
 528 0000 80B4     		push	{r7}
 529              		.cfi_def_cfa_offset 4
 530              		.cfi_offset 7, -4
 531 0002 00AF     		add	r7, sp, #0
 532              		.cfi_def_cfa_register 7
 383:Generated_Source\PSoC5/isr_i2s_tx.c ****     *isr_i2s_tx_INTC_SET_PD = isr_i2s_tx__INTC_MASK;
 533              		.loc 1 383 0
 534 0004 034B     		ldr	r3, .L42
 535 0006 0422     		movs	r2, #4
 536 0008 1A60     		str	r2, [r3]
 384:Generated_Source\PSoC5/isr_i2s_tx.c **** }
 537              		.loc 1 384 0
 538 000a 00BF     		nop
 539 000c BD46     		mov	sp, r7
 540              		.cfi_def_cfa_register 13
 541              		@ sp needed
 542 000e 80BC     		pop	{r7}
 543              		.cfi_restore 7
 544              		.cfi_def_cfa_offset 0
 545 0010 7047     		bx	lr
 546              	.L43:
 547 0012 00BF     		.align	2
 548              	.L42:
 549 0014 00E200E0 		.word	-536813056
 550              		.cfi_endproc
 551              	.LFE74:
 552              		.size	isr_i2s_tx_SetPending, .-isr_i2s_tx_SetPending
 553              		.section	.text.isr_i2s_tx_ClearPending,"ax",%progbits
 554              		.align	2
 555              		.global	isr_i2s_tx_ClearPending
 556              		.thumb
 557              		.thumb_func
 558              		.type	isr_i2s_tx_ClearPending, %function
 559              	isr_i2s_tx_ClearPending:
 560              	.LFB75:
 385:Generated_Source\PSoC5/isr_i2s_tx.c **** 
 386:Generated_Source\PSoC5/isr_i2s_tx.c **** 
 387:Generated_Source\PSoC5/isr_i2s_tx.c **** /*******************************************************************************
 388:Generated_Source\PSoC5/isr_i2s_tx.c **** * Function Name: isr_i2s_tx_ClearPending
 389:Generated_Source\PSoC5/isr_i2s_tx.c **** ********************************************************************************
 390:Generated_Source\PSoC5/isr_i2s_tx.c **** *
 391:Generated_Source\PSoC5/isr_i2s_tx.c **** * Summary:
 392:Generated_Source\PSoC5/isr_i2s_tx.c **** *   Clears a pending interrupt in the interrupt controller.
 393:Generated_Source\PSoC5/isr_i2s_tx.c **** *
 394:Generated_Source\PSoC5/isr_i2s_tx.c **** *   Note Some interrupt sources are clear-on-read and require the block 
 395:Generated_Source\PSoC5/isr_i2s_tx.c **** *   interrupt/status register to be read/cleared with the appropriate block API 
 396:Generated_Source\PSoC5/isr_i2s_tx.c **** *   (GPIO, UART, and so on). Otherwise the ISR will continue to remain in 
 397:Generated_Source\PSoC5/isr_i2s_tx.c **** *   pending state even though the interrupt itself is cleared using this API.
 398:Generated_Source\PSoC5/isr_i2s_tx.c **** *
 399:Generated_Source\PSoC5/isr_i2s_tx.c **** * Parameters:
 400:Generated_Source\PSoC5/isr_i2s_tx.c **** *   None
 401:Generated_Source\PSoC5/isr_i2s_tx.c **** *
 402:Generated_Source\PSoC5/isr_i2s_tx.c **** * Return:
 403:Generated_Source\PSoC5/isr_i2s_tx.c **** *   None
 404:Generated_Source\PSoC5/isr_i2s_tx.c **** *
 405:Generated_Source\PSoC5/isr_i2s_tx.c **** *******************************************************************************/
ARM GAS  C:\Users\pearlstl\AppData\Local\Temp\ccy6hbxj.s 			page 18


 406:Generated_Source\PSoC5/isr_i2s_tx.c **** void isr_i2s_tx_ClearPending(void)
 407:Generated_Source\PSoC5/isr_i2s_tx.c **** {
 561              		.loc 1 407 0
 562              		.cfi_startproc
 563              		@ args = 0, pretend = 0, frame = 0
 564              		@ frame_needed = 1, uses_anonymous_args = 0
 565              		@ link register save eliminated.
 566 0000 80B4     		push	{r7}
 567              		.cfi_def_cfa_offset 4
 568              		.cfi_offset 7, -4
 569 0002 00AF     		add	r7, sp, #0
 570              		.cfi_def_cfa_register 7
 408:Generated_Source\PSoC5/isr_i2s_tx.c ****     *isr_i2s_tx_INTC_CLR_PD = isr_i2s_tx__INTC_MASK;
 571              		.loc 1 408 0
 572 0004 034B     		ldr	r3, .L45
 573 0006 0422     		movs	r2, #4
 574 0008 1A60     		str	r2, [r3]
 409:Generated_Source\PSoC5/isr_i2s_tx.c **** }
 575              		.loc 1 409 0
 576 000a 00BF     		nop
 577 000c BD46     		mov	sp, r7
 578              		.cfi_def_cfa_register 13
 579              		@ sp needed
 580 000e 80BC     		pop	{r7}
 581              		.cfi_restore 7
 582              		.cfi_def_cfa_offset 0
 583 0010 7047     		bx	lr
 584              	.L46:
 585 0012 00BF     		.align	2
 586              	.L45:
 587 0014 80E200E0 		.word	-536812928
 588              		.cfi_endproc
 589              	.LFE75:
 590              		.size	isr_i2s_tx_ClearPending, .-isr_i2s_tx_ClearPending
 591              		.text
 592              	.Letext0:
 593              		.file 2 "c:\\program files (x86)\\cypress\\psoc creator\\4.2\\psoc creator\\import\\gnu\\arm\\5.4.
 594              		.file 3 "c:\\program files (x86)\\cypress\\psoc creator\\4.2\\psoc creator\\import\\gnu\\arm\\5.4.
 595              		.file 4 "Generated_Source\\PSoC5/cytypes.h"
 596              		.file 5 "Generated_Source\\PSoC5/core_cm3.h"