ARM GAS  C:\Users\pearlstl\AppData\Local\Temp\ccqRtGuC.s 			page 1


   1              		.syntax unified
   2              		.cpu cortex-m3
   3              		.fpu softvfp
   4              		.eabi_attribute 20, 1
   5              		.eabi_attribute 21, 1
   6              		.eabi_attribute 23, 3
   7              		.eabi_attribute 24, 1
   8              		.eabi_attribute 25, 1
   9              		.eabi_attribute 26, 1
  10              		.eabi_attribute 30, 6
  11              		.eabi_attribute 34, 1
  12              		.eabi_attribute 18, 4
  13              		.thumb
  14              		.syntax unified
  15              		.file	"isr_i2s_rx.c"
  16              		.text
  17              	.Ltext0:
  18              		.cfi_sections	.debug_frame
  19              		.global	out_value
  20              		.bss
  21              		.align	2
  22              		.type	out_value, %object
  23              		.size	out_value, 8
  24              	out_value:
  25 0000 00000000 		.space	8
  25      00000000 
  26              		.section	.text.isr_i2s_rx_Start,"ax",%progbits
  27              		.align	2
  28              		.global	isr_i2s_rx_Start
  29              		.thumb
  30              		.thumb_func
  31              		.type	isr_i2s_rx_Start, %function
  32              	isr_i2s_rx_Start:
  33              	.LFB63:
  34              		.file 1 "Generated_Source\\PSoC5\\isr_i2s_rx.c"
   1:Generated_Source\PSoC5/isr_i2s_rx.c **** /*******************************************************************************
   2:Generated_Source\PSoC5/isr_i2s_rx.c **** * File Name: isr_i2s_rx.c  
   3:Generated_Source\PSoC5/isr_i2s_rx.c **** * Version 1.70
   4:Generated_Source\PSoC5/isr_i2s_rx.c **** *
   5:Generated_Source\PSoC5/isr_i2s_rx.c **** *  Description:
   6:Generated_Source\PSoC5/isr_i2s_rx.c **** *   API for controlling the state of an interrupt.
   7:Generated_Source\PSoC5/isr_i2s_rx.c **** *
   8:Generated_Source\PSoC5/isr_i2s_rx.c **** *
   9:Generated_Source\PSoC5/isr_i2s_rx.c **** *  Note:
  10:Generated_Source\PSoC5/isr_i2s_rx.c **** *
  11:Generated_Source\PSoC5/isr_i2s_rx.c **** ********************************************************************************
  12:Generated_Source\PSoC5/isr_i2s_rx.c **** * Copyright 2008-2015, Cypress Semiconductor Corporation.  All rights reserved.
  13:Generated_Source\PSoC5/isr_i2s_rx.c **** * You may use this file only in accordance with the license, terms, conditions, 
  14:Generated_Source\PSoC5/isr_i2s_rx.c **** * disclaimers, and limitations in the end user license agreement accompanying 
  15:Generated_Source\PSoC5/isr_i2s_rx.c **** * the software package with which this file was provided.
  16:Generated_Source\PSoC5/isr_i2s_rx.c **** *******************************************************************************/
  17:Generated_Source\PSoC5/isr_i2s_rx.c **** 
  18:Generated_Source\PSoC5/isr_i2s_rx.c **** 
  19:Generated_Source\PSoC5/isr_i2s_rx.c **** #include <cydevice_trm.h>
  20:Generated_Source\PSoC5/isr_i2s_rx.c **** #include <CyLib.h>
  21:Generated_Source\PSoC5/isr_i2s_rx.c **** #include <isr_i2s_rx.h>
  22:Generated_Source\PSoC5/isr_i2s_rx.c **** #include "cyapicallbacks.h"
ARM GAS  C:\Users\pearlstl\AppData\Local\Temp\ccqRtGuC.s 			page 2


  23:Generated_Source\PSoC5/isr_i2s_rx.c **** 
  24:Generated_Source\PSoC5/isr_i2s_rx.c **** #if !defined(isr_i2s_rx__REMOVED) /* Check for removal by optimization */
  25:Generated_Source\PSoC5/isr_i2s_rx.c **** 
  26:Generated_Source\PSoC5/isr_i2s_rx.c **** /*******************************************************************************
  27:Generated_Source\PSoC5/isr_i2s_rx.c **** *  Place your includes, defines and code here 
  28:Generated_Source\PSoC5/isr_i2s_rx.c **** ********************************************************************************/
  29:Generated_Source\PSoC5/isr_i2s_rx.c **** /* `#START isr_i2s_rx_intc` */
  30:Generated_Source\PSoC5/isr_i2s_rx.c **** #include "project.h"
  31:Generated_Source\PSoC5/isr_i2s_rx.c **** int volatile out_value[2]={0,0};
  32:Generated_Source\PSoC5/isr_i2s_rx.c **** /* `#END` */
  33:Generated_Source\PSoC5/isr_i2s_rx.c **** 
  34:Generated_Source\PSoC5/isr_i2s_rx.c **** #ifndef CYINT_IRQ_BASE
  35:Generated_Source\PSoC5/isr_i2s_rx.c **** #define CYINT_IRQ_BASE      16
  36:Generated_Source\PSoC5/isr_i2s_rx.c **** #endif /* CYINT_IRQ_BASE */
  37:Generated_Source\PSoC5/isr_i2s_rx.c **** #ifndef CYINT_VECT_TABLE
  38:Generated_Source\PSoC5/isr_i2s_rx.c **** #define CYINT_VECT_TABLE    ((cyisraddress **) CYREG_NVIC_VECT_OFFSET)
  39:Generated_Source\PSoC5/isr_i2s_rx.c **** #endif /* CYINT_VECT_TABLE */
  40:Generated_Source\PSoC5/isr_i2s_rx.c **** 
  41:Generated_Source\PSoC5/isr_i2s_rx.c **** /* Declared in startup, used to set unused interrupts to. */
  42:Generated_Source\PSoC5/isr_i2s_rx.c **** CY_ISR_PROTO(IntDefaultHandler);
  43:Generated_Source\PSoC5/isr_i2s_rx.c **** 
  44:Generated_Source\PSoC5/isr_i2s_rx.c **** 
  45:Generated_Source\PSoC5/isr_i2s_rx.c **** /*******************************************************************************
  46:Generated_Source\PSoC5/isr_i2s_rx.c **** * Function Name: isr_i2s_rx_Start
  47:Generated_Source\PSoC5/isr_i2s_rx.c **** ********************************************************************************
  48:Generated_Source\PSoC5/isr_i2s_rx.c **** *
  49:Generated_Source\PSoC5/isr_i2s_rx.c **** * Summary:
  50:Generated_Source\PSoC5/isr_i2s_rx.c **** *  Set up the interrupt and enable it. This function disables the interrupt, 
  51:Generated_Source\PSoC5/isr_i2s_rx.c **** *  sets the default interrupt vector, sets the priority from the value in the
  52:Generated_Source\PSoC5/isr_i2s_rx.c **** *  Design Wide Resources Interrupt Editor, then enables the interrupt to the 
  53:Generated_Source\PSoC5/isr_i2s_rx.c **** *  interrupt controller.
  54:Generated_Source\PSoC5/isr_i2s_rx.c **** *
  55:Generated_Source\PSoC5/isr_i2s_rx.c **** * Parameters:  
  56:Generated_Source\PSoC5/isr_i2s_rx.c **** *   None
  57:Generated_Source\PSoC5/isr_i2s_rx.c **** *
  58:Generated_Source\PSoC5/isr_i2s_rx.c **** * Return:
  59:Generated_Source\PSoC5/isr_i2s_rx.c **** *   None
  60:Generated_Source\PSoC5/isr_i2s_rx.c **** *
  61:Generated_Source\PSoC5/isr_i2s_rx.c **** *******************************************************************************/
  62:Generated_Source\PSoC5/isr_i2s_rx.c **** void isr_i2s_rx_Start(void)
  63:Generated_Source\PSoC5/isr_i2s_rx.c **** {
  35              		.loc 1 63 0
  36              		.cfi_startproc
  37              		@ args = 0, pretend = 0, frame = 0
  38              		@ frame_needed = 1, uses_anonymous_args = 0
  39 0000 80B5     		push	{r7, lr}
  40              		.cfi_def_cfa_offset 8
  41              		.cfi_offset 7, -8
  42              		.cfi_offset 14, -4
  43 0002 00AF     		add	r7, sp, #0
  44              		.cfi_def_cfa_register 7
  64:Generated_Source\PSoC5/isr_i2s_rx.c ****     /* For all we know the interrupt is active. */
  65:Generated_Source\PSoC5/isr_i2s_rx.c ****     isr_i2s_rx_Disable();
  45              		.loc 1 65 0
  46 0004 FFF7FEFF 		bl	isr_i2s_rx_Disable
  66:Generated_Source\PSoC5/isr_i2s_rx.c **** 
  67:Generated_Source\PSoC5/isr_i2s_rx.c ****     /* Set the ISR to point to the isr_i2s_rx Interrupt. */
ARM GAS  C:\Users\pearlstl\AppData\Local\Temp\ccqRtGuC.s 			page 3


  68:Generated_Source\PSoC5/isr_i2s_rx.c ****     isr_i2s_rx_SetVector(&isr_i2s_rx_Interrupt);
  47              		.loc 1 68 0
  48 0008 0448     		ldr	r0, .L2
  49 000a FFF7FEFF 		bl	isr_i2s_rx_SetVector
  69:Generated_Source\PSoC5/isr_i2s_rx.c **** 
  70:Generated_Source\PSoC5/isr_i2s_rx.c ****     /* Set the priority. */
  71:Generated_Source\PSoC5/isr_i2s_rx.c ****     isr_i2s_rx_SetPriority((uint8)isr_i2s_rx_INTC_PRIOR_NUMBER);
  50              		.loc 1 71 0
  51 000e 0720     		movs	r0, #7
  52 0010 FFF7FEFF 		bl	isr_i2s_rx_SetPriority
  72:Generated_Source\PSoC5/isr_i2s_rx.c **** 
  73:Generated_Source\PSoC5/isr_i2s_rx.c ****     /* Enable it. */
  74:Generated_Source\PSoC5/isr_i2s_rx.c ****     isr_i2s_rx_Enable();
  53              		.loc 1 74 0
  54 0014 FFF7FEFF 		bl	isr_i2s_rx_Enable
  75:Generated_Source\PSoC5/isr_i2s_rx.c **** }
  55              		.loc 1 75 0
  56 0018 00BF     		nop
  57 001a 80BD     		pop	{r7, pc}
  58              	.L3:
  59              		.align	2
  60              	.L2:
  61 001c 00000000 		.word	isr_i2s_rx_Interrupt
  62              		.cfi_endproc
  63              	.LFE63:
  64              		.size	isr_i2s_rx_Start, .-isr_i2s_rx_Start
  65              		.section	.text.isr_i2s_rx_StartEx,"ax",%progbits
  66              		.align	2
  67              		.global	isr_i2s_rx_StartEx
  68              		.thumb
  69              		.thumb_func
  70              		.type	isr_i2s_rx_StartEx, %function
  71              	isr_i2s_rx_StartEx:
  72              	.LFB64:
  76:Generated_Source\PSoC5/isr_i2s_rx.c **** 
  77:Generated_Source\PSoC5/isr_i2s_rx.c **** 
  78:Generated_Source\PSoC5/isr_i2s_rx.c **** /*******************************************************************************
  79:Generated_Source\PSoC5/isr_i2s_rx.c **** * Function Name: isr_i2s_rx_StartEx
  80:Generated_Source\PSoC5/isr_i2s_rx.c **** ********************************************************************************
  81:Generated_Source\PSoC5/isr_i2s_rx.c **** *
  82:Generated_Source\PSoC5/isr_i2s_rx.c **** * Summary:
  83:Generated_Source\PSoC5/isr_i2s_rx.c **** *  Sets up the interrupt and enables it. This function disables the interrupt,
  84:Generated_Source\PSoC5/isr_i2s_rx.c **** *  sets the interrupt vector based on the address passed in, sets the priority 
  85:Generated_Source\PSoC5/isr_i2s_rx.c **** *  from the value in the Design Wide Resources Interrupt Editor, then enables 
  86:Generated_Source\PSoC5/isr_i2s_rx.c **** *  the interrupt to the interrupt controller.
  87:Generated_Source\PSoC5/isr_i2s_rx.c **** *  
  88:Generated_Source\PSoC5/isr_i2s_rx.c **** *  When defining ISR functions, the CY_ISR and CY_ISR_PROTO macros should be 
  89:Generated_Source\PSoC5/isr_i2s_rx.c **** *  used to provide consistent definition across compilers:
  90:Generated_Source\PSoC5/isr_i2s_rx.c **** *  
  91:Generated_Source\PSoC5/isr_i2s_rx.c **** *  Function definition example:
  92:Generated_Source\PSoC5/isr_i2s_rx.c **** *   CY_ISR(MyISR)
  93:Generated_Source\PSoC5/isr_i2s_rx.c **** *   {
  94:Generated_Source\PSoC5/isr_i2s_rx.c **** *   }
  95:Generated_Source\PSoC5/isr_i2s_rx.c **** *   Function prototype example:
  96:Generated_Source\PSoC5/isr_i2s_rx.c **** *   CY_ISR_PROTO(MyISR);
  97:Generated_Source\PSoC5/isr_i2s_rx.c **** *
  98:Generated_Source\PSoC5/isr_i2s_rx.c **** * Parameters:  
ARM GAS  C:\Users\pearlstl\AppData\Local\Temp\ccqRtGuC.s 			page 4


  99:Generated_Source\PSoC5/isr_i2s_rx.c **** *   address: Address of the ISR to set in the interrupt vector table.
 100:Generated_Source\PSoC5/isr_i2s_rx.c **** *
 101:Generated_Source\PSoC5/isr_i2s_rx.c **** * Return:
 102:Generated_Source\PSoC5/isr_i2s_rx.c **** *   None
 103:Generated_Source\PSoC5/isr_i2s_rx.c **** *
 104:Generated_Source\PSoC5/isr_i2s_rx.c **** *******************************************************************************/
 105:Generated_Source\PSoC5/isr_i2s_rx.c **** void isr_i2s_rx_StartEx(cyisraddress address)
 106:Generated_Source\PSoC5/isr_i2s_rx.c **** {
  73              		.loc 1 106 0
  74              		.cfi_startproc
  75              		@ args = 0, pretend = 0, frame = 8
  76              		@ frame_needed = 1, uses_anonymous_args = 0
  77 0000 80B5     		push	{r7, lr}
  78              		.cfi_def_cfa_offset 8
  79              		.cfi_offset 7, -8
  80              		.cfi_offset 14, -4
  81 0002 82B0     		sub	sp, sp, #8
  82              		.cfi_def_cfa_offset 16
  83 0004 00AF     		add	r7, sp, #0
  84              		.cfi_def_cfa_register 7
  85 0006 7860     		str	r0, [r7, #4]
 107:Generated_Source\PSoC5/isr_i2s_rx.c ****     /* For all we know the interrupt is active. */
 108:Generated_Source\PSoC5/isr_i2s_rx.c ****     isr_i2s_rx_Disable();
  86              		.loc 1 108 0
  87 0008 FFF7FEFF 		bl	isr_i2s_rx_Disable
 109:Generated_Source\PSoC5/isr_i2s_rx.c **** 
 110:Generated_Source\PSoC5/isr_i2s_rx.c ****     /* Set the ISR to point to the isr_i2s_rx Interrupt. */
 111:Generated_Source\PSoC5/isr_i2s_rx.c ****     isr_i2s_rx_SetVector(address);
  88              		.loc 1 111 0
  89 000c 7868     		ldr	r0, [r7, #4]
  90 000e FFF7FEFF 		bl	isr_i2s_rx_SetVector
 112:Generated_Source\PSoC5/isr_i2s_rx.c **** 
 113:Generated_Source\PSoC5/isr_i2s_rx.c ****     /* Set the priority. */
 114:Generated_Source\PSoC5/isr_i2s_rx.c ****     isr_i2s_rx_SetPriority((uint8)isr_i2s_rx_INTC_PRIOR_NUMBER);
  91              		.loc 1 114 0
  92 0012 0720     		movs	r0, #7
  93 0014 FFF7FEFF 		bl	isr_i2s_rx_SetPriority
 115:Generated_Source\PSoC5/isr_i2s_rx.c **** 
 116:Generated_Source\PSoC5/isr_i2s_rx.c ****     /* Enable it. */
 117:Generated_Source\PSoC5/isr_i2s_rx.c ****     isr_i2s_rx_Enable();
  94              		.loc 1 117 0
  95 0018 FFF7FEFF 		bl	isr_i2s_rx_Enable
 118:Generated_Source\PSoC5/isr_i2s_rx.c **** }
  96              		.loc 1 118 0
  97 001c 00BF     		nop
  98 001e 0837     		adds	r7, r7, #8
  99              		.cfi_def_cfa_offset 8
 100 0020 BD46     		mov	sp, r7
 101              		.cfi_def_cfa_register 13
 102              		@ sp needed
 103 0022 80BD     		pop	{r7, pc}
 104              		.cfi_endproc
 105              	.LFE64:
 106              		.size	isr_i2s_rx_StartEx, .-isr_i2s_rx_StartEx
 107              		.section	.text.isr_i2s_rx_Stop,"ax",%progbits
 108              		.align	2
 109              		.global	isr_i2s_rx_Stop
ARM GAS  C:\Users\pearlstl\AppData\Local\Temp\ccqRtGuC.s 			page 5


 110              		.thumb
 111              		.thumb_func
 112              		.type	isr_i2s_rx_Stop, %function
 113              	isr_i2s_rx_Stop:
 114              	.LFB65:
 119:Generated_Source\PSoC5/isr_i2s_rx.c **** 
 120:Generated_Source\PSoC5/isr_i2s_rx.c **** 
 121:Generated_Source\PSoC5/isr_i2s_rx.c **** /*******************************************************************************
 122:Generated_Source\PSoC5/isr_i2s_rx.c **** * Function Name: isr_i2s_rx_Stop
 123:Generated_Source\PSoC5/isr_i2s_rx.c **** ********************************************************************************
 124:Generated_Source\PSoC5/isr_i2s_rx.c **** *
 125:Generated_Source\PSoC5/isr_i2s_rx.c **** * Summary:
 126:Generated_Source\PSoC5/isr_i2s_rx.c **** *   Disables and removes the interrupt.
 127:Generated_Source\PSoC5/isr_i2s_rx.c **** *
 128:Generated_Source\PSoC5/isr_i2s_rx.c **** * Parameters:  
 129:Generated_Source\PSoC5/isr_i2s_rx.c **** *   None
 130:Generated_Source\PSoC5/isr_i2s_rx.c **** *
 131:Generated_Source\PSoC5/isr_i2s_rx.c **** * Return:
 132:Generated_Source\PSoC5/isr_i2s_rx.c **** *   None
 133:Generated_Source\PSoC5/isr_i2s_rx.c **** *
 134:Generated_Source\PSoC5/isr_i2s_rx.c **** *******************************************************************************/
 135:Generated_Source\PSoC5/isr_i2s_rx.c **** void isr_i2s_rx_Stop(void)
 136:Generated_Source\PSoC5/isr_i2s_rx.c **** {
 115              		.loc 1 136 0
 116              		.cfi_startproc
 117              		@ args = 0, pretend = 0, frame = 0
 118              		@ frame_needed = 1, uses_anonymous_args = 0
 119 0000 80B5     		push	{r7, lr}
 120              		.cfi_def_cfa_offset 8
 121              		.cfi_offset 7, -8
 122              		.cfi_offset 14, -4
 123 0002 00AF     		add	r7, sp, #0
 124              		.cfi_def_cfa_register 7
 137:Generated_Source\PSoC5/isr_i2s_rx.c ****     /* Disable this interrupt. */
 138:Generated_Source\PSoC5/isr_i2s_rx.c ****     isr_i2s_rx_Disable();
 125              		.loc 1 138 0
 126 0004 FFF7FEFF 		bl	isr_i2s_rx_Disable
 139:Generated_Source\PSoC5/isr_i2s_rx.c **** 
 140:Generated_Source\PSoC5/isr_i2s_rx.c ****     /* Set the ISR to point to the passive one. */
 141:Generated_Source\PSoC5/isr_i2s_rx.c ****     isr_i2s_rx_SetVector(&IntDefaultHandler);
 127              		.loc 1 141 0
 128 0008 0248     		ldr	r0, .L6
 129 000a FFF7FEFF 		bl	isr_i2s_rx_SetVector
 142:Generated_Source\PSoC5/isr_i2s_rx.c **** }
 130              		.loc 1 142 0
 131 000e 00BF     		nop
 132 0010 80BD     		pop	{r7, pc}
 133              	.L7:
 134 0012 00BF     		.align	2
 135              	.L6:
 136 0014 00000000 		.word	IntDefaultHandler
 137              		.cfi_endproc
 138              	.LFE65:
 139              		.size	isr_i2s_rx_Stop, .-isr_i2s_rx_Stop
 140              		.section	.text.isr_i2s_rx_Interrupt,"ax",%progbits
 141              		.align	2
 142              		.global	isr_i2s_rx_Interrupt
ARM GAS  C:\Users\pearlstl\AppData\Local\Temp\ccqRtGuC.s 			page 6


 143              		.thumb
 144              		.thumb_func
 145              		.type	isr_i2s_rx_Interrupt, %function
 146              	isr_i2s_rx_Interrupt:
 147              	.LFB66:
 143:Generated_Source\PSoC5/isr_i2s_rx.c **** 
 144:Generated_Source\PSoC5/isr_i2s_rx.c **** 
 145:Generated_Source\PSoC5/isr_i2s_rx.c **** /*******************************************************************************
 146:Generated_Source\PSoC5/isr_i2s_rx.c **** * Function Name: isr_i2s_rx_Interrupt
 147:Generated_Source\PSoC5/isr_i2s_rx.c **** ********************************************************************************
 148:Generated_Source\PSoC5/isr_i2s_rx.c **** *
 149:Generated_Source\PSoC5/isr_i2s_rx.c **** * Summary:
 150:Generated_Source\PSoC5/isr_i2s_rx.c **** *   The default Interrupt Service Routine for isr_i2s_rx.
 151:Generated_Source\PSoC5/isr_i2s_rx.c **** *
 152:Generated_Source\PSoC5/isr_i2s_rx.c **** *   Add custom code between the coments to keep the next version of this file
 153:Generated_Source\PSoC5/isr_i2s_rx.c **** *   from over writting your code.
 154:Generated_Source\PSoC5/isr_i2s_rx.c **** *
 155:Generated_Source\PSoC5/isr_i2s_rx.c **** * Parameters:  
 156:Generated_Source\PSoC5/isr_i2s_rx.c **** *
 157:Generated_Source\PSoC5/isr_i2s_rx.c **** * Return:
 158:Generated_Source\PSoC5/isr_i2s_rx.c **** *   None
 159:Generated_Source\PSoC5/isr_i2s_rx.c **** *
 160:Generated_Source\PSoC5/isr_i2s_rx.c **** *******************************************************************************/
 161:Generated_Source\PSoC5/isr_i2s_rx.c **** CY_ISR(isr_i2s_rx_Interrupt)
 162:Generated_Source\PSoC5/isr_i2s_rx.c **** {
 148              		.loc 1 162 0
 149              		.cfi_startproc
 150              		@ args = 0, pretend = 0, frame = 0
 151              		@ frame_needed = 1, uses_anonymous_args = 0
 152 0000 80B5     		push	{r7, lr}
 153              		.cfi_def_cfa_offset 8
 154              		.cfi_offset 7, -8
 155              		.cfi_offset 14, -4
 156 0002 00AF     		add	r7, sp, #0
 157              		.cfi_def_cfa_register 7
 163:Generated_Source\PSoC5/isr_i2s_rx.c ****     #ifdef isr_i2s_rx_INTERRUPT_INTERRUPT_CALLBACK
 164:Generated_Source\PSoC5/isr_i2s_rx.c ****         isr_i2s_rx_Interrupt_InterruptCallback();
 165:Generated_Source\PSoC5/isr_i2s_rx.c ****     #endif /* isr_i2s_rx_INTERRUPT_INTERRUPT_CALLBACK */ 
 166:Generated_Source\PSoC5/isr_i2s_rx.c **** 
 167:Generated_Source\PSoC5/isr_i2s_rx.c ****     /*  Place your Interrupt code here. */
 168:Generated_Source\PSoC5/isr_i2s_rx.c ****     /* `#START isr_i2s_rx_Interrupt` */
 169:Generated_Source\PSoC5/isr_i2s_rx.c **** #ifdef NDEBUG
 170:Generated_Source\PSoC5/isr_i2s_rx.c ****     P3_0_Write(1);
 171:Generated_Source\PSoC5/isr_i2s_rx.c **** #endif
 172:Generated_Source\PSoC5/isr_i2s_rx.c **** 
 173:Generated_Source\PSoC5/isr_i2s_rx.c ****     static int word_idx = 0;
 174:Generated_Source\PSoC5/isr_i2s_rx.c ****     static int byte_idx = 1;
 175:Generated_Source\PSoC5/isr_i2s_rx.c ****     
 176:Generated_Source\PSoC5/isr_i2s_rx.c ****     // Check for I2S_OUT write FIFO not full
 177:Generated_Source\PSoC5/isr_i2s_rx.c ****     while (I2S_ReadRxStatus() & I2S_RX_FIFO_0_NOT_EMPTY)
 158              		.loc 1 177 0
 159 0004 23E0     		b	.L9
 160              	.L11:
 178:Generated_Source\PSoC5/isr_i2s_rx.c ****     {
 179:Generated_Source\PSoC5/isr_i2s_rx.c ****         out_value[word_idx] = out_value[word_idx] | (I2S_ReadByte(word_idx) << (8*byte_idx));
 161              		.loc 1 179 0
 162 0006 1F4B     		ldr	r3, .L14
ARM GAS  C:\Users\pearlstl\AppData\Local\Temp\ccqRtGuC.s 			page 7


 163 0008 1B68     		ldr	r3, [r3]
 164 000a 1E4A     		ldr	r2, .L14
 165 000c 1268     		ldr	r2, [r2]
 166 000e 1E49     		ldr	r1, .L14+4
 167 0010 51F82210 		ldr	r1, [r1, r2, lsl #2]
 168 0014 1D4A     		ldr	r2, .L14+8
 169 0016 1278     		ldrb	r2, [r2]
 170 0018 D2B2     		uxtb	r2, r2
 171 001a 1046     		mov	r0, r2
 172 001c 1C4A     		ldr	r2, .L14+12
 173 001e 1268     		ldr	r2, [r2]
 174 0020 D200     		lsls	r2, r2, #3
 175 0022 00FA02F2 		lsl	r2, r0, r2
 176 0026 0A43     		orrs	r2, r2, r1
 177 0028 1749     		ldr	r1, .L14+4
 178 002a 41F82320 		str	r2, [r1, r3, lsl #2]
 180:Generated_Source\PSoC5/isr_i2s_rx.c ****             
 181:Generated_Source\PSoC5/isr_i2s_rx.c ****         if (byte_idx == 0)
 179              		.loc 1 181 0
 180 002e 184B     		ldr	r3, .L14+12
 181 0030 1B68     		ldr	r3, [r3]
 182 0032 002B     		cmp	r3, #0
 183 0034 05D1     		bne	.L10
 182:Generated_Source\PSoC5/isr_i2s_rx.c ****             word_idx = 1 - word_idx;
 184              		.loc 1 182 0
 185 0036 134B     		ldr	r3, .L14
 186 0038 1B68     		ldr	r3, [r3]
 187 003a C3F10103 		rsb	r3, r3, #1
 188 003e 114A     		ldr	r2, .L14
 189 0040 1360     		str	r3, [r2]
 190              	.L10:
 183:Generated_Source\PSoC5/isr_i2s_rx.c ****         
 184:Generated_Source\PSoC5/isr_i2s_rx.c ****         byte_idx = 1 - byte_idx;
 191              		.loc 1 184 0
 192 0042 134B     		ldr	r3, .L14+12
 193 0044 1B68     		ldr	r3, [r3]
 194 0046 C3F10103 		rsb	r3, r3, #1
 195 004a 114A     		ldr	r2, .L14+12
 196 004c 1360     		str	r3, [r2]
 197              	.L9:
 177:Generated_Source\PSoC5/isr_i2s_rx.c ****     {
 198              		.loc 1 177 0
 199 004e 114B     		ldr	r3, .L14+16
 200 0050 1B78     		ldrb	r3, [r3]
 201 0052 DBB2     		uxtb	r3, r3
 202 0054 03F00203 		and	r3, r3, #2
 203 0058 002B     		cmp	r3, #0
 204 005a D4D1     		bne	.L11
 185:Generated_Source\PSoC5/isr_i2s_rx.c ****     }
 186:Generated_Source\PSoC5/isr_i2s_rx.c **** 
 187:Generated_Source\PSoC5/isr_i2s_rx.c ****     if (word_idx == 0 && byte_idx == 1)
 205              		.loc 1 187 0
 206 005c 094B     		ldr	r3, .L14
 207 005e 1B68     		ldr	r3, [r3]
 208 0060 002B     		cmp	r3, #0
 209 0062 0CD1     		bne	.L13
 210              		.loc 1 187 0 is_stmt 0 discriminator 1
ARM GAS  C:\Users\pearlstl\AppData\Local\Temp\ccqRtGuC.s 			page 8


 211 0064 0A4B     		ldr	r3, .L14+12
 212 0066 1B68     		ldr	r3, [r3]
 213 0068 012B     		cmp	r3, #1
 214 006a 08D1     		bne	.L13
 188:Generated_Source\PSoC5/isr_i2s_rx.c ****     {
 189:Generated_Source\PSoC5/isr_i2s_rx.c ****         DAC_SetValue((out_value[0] >> 8) + 128);
 215              		.loc 1 189 0 is_stmt 1
 216 006c 064B     		ldr	r3, .L14+4
 217 006e 1B68     		ldr	r3, [r3]
 218 0070 1B12     		asrs	r3, r3, #8
 219 0072 DBB2     		uxtb	r3, r3
 220 0074 803B     		subs	r3, r3, #128
 221 0076 DBB2     		uxtb	r3, r3
 222 0078 1846     		mov	r0, r3
 223 007a FFF7FEFF 		bl	DAC_SetValue
 224              	.L13:
 190:Generated_Source\PSoC5/isr_i2s_rx.c ****     }
 191:Generated_Source\PSoC5/isr_i2s_rx.c **** #ifdef NDEBUG
 192:Generated_Source\PSoC5/isr_i2s_rx.c ****     P3_0_Write(0);
 193:Generated_Source\PSoC5/isr_i2s_rx.c **** #endif
 194:Generated_Source\PSoC5/isr_i2s_rx.c ****     /* `#END` */
 195:Generated_Source\PSoC5/isr_i2s_rx.c **** }
 225              		.loc 1 195 0
 226 007e 00BF     		nop
 227 0080 80BD     		pop	{r7, pc}
 228              	.L15:
 229 0082 00BF     		.align	2
 230              	.L14:
 231 0084 08000000 		.word	word_idx.5888
 232 0088 00000000 		.word	out_value
 233 008c 42640040 		.word	1073767490
 234 0090 00000000 		.word	byte_idx.5889
 235 0094 61640040 		.word	1073767521
 236              		.cfi_endproc
 237              	.LFE66:
 238              		.size	isr_i2s_rx_Interrupt, .-isr_i2s_rx_Interrupt
 239              		.section	.text.isr_i2s_rx_SetVector,"ax",%progbits
 240              		.align	2
 241              		.global	isr_i2s_rx_SetVector
 242              		.thumb
 243              		.thumb_func
 244              		.type	isr_i2s_rx_SetVector, %function
 245              	isr_i2s_rx_SetVector:
 246              	.LFB67:
 196:Generated_Source\PSoC5/isr_i2s_rx.c **** 
 197:Generated_Source\PSoC5/isr_i2s_rx.c **** 
 198:Generated_Source\PSoC5/isr_i2s_rx.c **** /*******************************************************************************
 199:Generated_Source\PSoC5/isr_i2s_rx.c **** * Function Name: isr_i2s_rx_SetVector
 200:Generated_Source\PSoC5/isr_i2s_rx.c **** ********************************************************************************
 201:Generated_Source\PSoC5/isr_i2s_rx.c **** *
 202:Generated_Source\PSoC5/isr_i2s_rx.c **** * Summary:
 203:Generated_Source\PSoC5/isr_i2s_rx.c **** *   Change the ISR vector for the Interrupt. Note calling isr_i2s_rx_Start
 204:Generated_Source\PSoC5/isr_i2s_rx.c **** *   will override any effect this method would have had. To set the vector 
 205:Generated_Source\PSoC5/isr_i2s_rx.c **** *   before the component has been started use isr_i2s_rx_StartEx instead.
 206:Generated_Source\PSoC5/isr_i2s_rx.c **** * 
 207:Generated_Source\PSoC5/isr_i2s_rx.c **** *   When defining ISR functions, the CY_ISR and CY_ISR_PROTO macros should be 
 208:Generated_Source\PSoC5/isr_i2s_rx.c **** *   used to provide consistent definition across compilers:
ARM GAS  C:\Users\pearlstl\AppData\Local\Temp\ccqRtGuC.s 			page 9


 209:Generated_Source\PSoC5/isr_i2s_rx.c **** *
 210:Generated_Source\PSoC5/isr_i2s_rx.c **** *   Function definition example:
 211:Generated_Source\PSoC5/isr_i2s_rx.c **** *   CY_ISR(MyISR)
 212:Generated_Source\PSoC5/isr_i2s_rx.c **** *   {
 213:Generated_Source\PSoC5/isr_i2s_rx.c **** *   }
 214:Generated_Source\PSoC5/isr_i2s_rx.c **** *
 215:Generated_Source\PSoC5/isr_i2s_rx.c **** *   Function prototype example:
 216:Generated_Source\PSoC5/isr_i2s_rx.c **** *     CY_ISR_PROTO(MyISR);
 217:Generated_Source\PSoC5/isr_i2s_rx.c **** *
 218:Generated_Source\PSoC5/isr_i2s_rx.c **** * Parameters:
 219:Generated_Source\PSoC5/isr_i2s_rx.c **** *   address: Address of the ISR to set in the interrupt vector table.
 220:Generated_Source\PSoC5/isr_i2s_rx.c **** *
 221:Generated_Source\PSoC5/isr_i2s_rx.c **** * Return:
 222:Generated_Source\PSoC5/isr_i2s_rx.c **** *   None
 223:Generated_Source\PSoC5/isr_i2s_rx.c **** *
 224:Generated_Source\PSoC5/isr_i2s_rx.c **** *******************************************************************************/
 225:Generated_Source\PSoC5/isr_i2s_rx.c **** void isr_i2s_rx_SetVector(cyisraddress address)
 226:Generated_Source\PSoC5/isr_i2s_rx.c **** {
 247              		.loc 1 226 0
 248              		.cfi_startproc
 249              		@ args = 0, pretend = 0, frame = 16
 250              		@ frame_needed = 1, uses_anonymous_args = 0
 251              		@ link register save eliminated.
 252 0000 80B4     		push	{r7}
 253              		.cfi_def_cfa_offset 4
 254              		.cfi_offset 7, -4
 255 0002 85B0     		sub	sp, sp, #20
 256              		.cfi_def_cfa_offset 24
 257 0004 00AF     		add	r7, sp, #0
 258              		.cfi_def_cfa_register 7
 259 0006 7860     		str	r0, [r7, #4]
 227:Generated_Source\PSoC5/isr_i2s_rx.c ****     cyisraddress * ramVectorTable;
 228:Generated_Source\PSoC5/isr_i2s_rx.c **** 
 229:Generated_Source\PSoC5/isr_i2s_rx.c ****     ramVectorTable = (cyisraddress *) *CYINT_VECT_TABLE;
 260              		.loc 1 229 0
 261 0008 054B     		ldr	r3, .L17
 262 000a 1B68     		ldr	r3, [r3]
 263 000c FB60     		str	r3, [r7, #12]
 230:Generated_Source\PSoC5/isr_i2s_rx.c **** 
 231:Generated_Source\PSoC5/isr_i2s_rx.c ****     ramVectorTable[CYINT_IRQ_BASE + (uint32)isr_i2s_rx__INTC_NUMBER] = address;
 264              		.loc 1 231 0
 265 000e FB68     		ldr	r3, [r7, #12]
 266 0010 4833     		adds	r3, r3, #72
 267 0012 7A68     		ldr	r2, [r7, #4]
 268 0014 1A60     		str	r2, [r3]
 232:Generated_Source\PSoC5/isr_i2s_rx.c **** }
 269              		.loc 1 232 0
 270 0016 00BF     		nop
 271 0018 1437     		adds	r7, r7, #20
 272              		.cfi_def_cfa_offset 4
 273 001a BD46     		mov	sp, r7
 274              		.cfi_def_cfa_register 13
 275              		@ sp needed
 276 001c 80BC     		pop	{r7}
 277              		.cfi_restore 7
 278              		.cfi_def_cfa_offset 0
 279 001e 7047     		bx	lr
ARM GAS  C:\Users\pearlstl\AppData\Local\Temp\ccqRtGuC.s 			page 10


 280              	.L18:
 281              		.align	2
 282              	.L17:
 283 0020 08ED00E0 		.word	-536810232
 284              		.cfi_endproc
 285              	.LFE67:
 286              		.size	isr_i2s_rx_SetVector, .-isr_i2s_rx_SetVector
 287              		.section	.text.isr_i2s_rx_GetVector,"ax",%progbits
 288              		.align	2
 289              		.global	isr_i2s_rx_GetVector
 290              		.thumb
 291              		.thumb_func
 292              		.type	isr_i2s_rx_GetVector, %function
 293              	isr_i2s_rx_GetVector:
 294              	.LFB68:
 233:Generated_Source\PSoC5/isr_i2s_rx.c **** 
 234:Generated_Source\PSoC5/isr_i2s_rx.c **** 
 235:Generated_Source\PSoC5/isr_i2s_rx.c **** /*******************************************************************************
 236:Generated_Source\PSoC5/isr_i2s_rx.c **** * Function Name: isr_i2s_rx_GetVector
 237:Generated_Source\PSoC5/isr_i2s_rx.c **** ********************************************************************************
 238:Generated_Source\PSoC5/isr_i2s_rx.c **** *
 239:Generated_Source\PSoC5/isr_i2s_rx.c **** * Summary:
 240:Generated_Source\PSoC5/isr_i2s_rx.c **** *   Gets the "address" of the current ISR vector for the Interrupt.
 241:Generated_Source\PSoC5/isr_i2s_rx.c **** *
 242:Generated_Source\PSoC5/isr_i2s_rx.c **** * Parameters:
 243:Generated_Source\PSoC5/isr_i2s_rx.c **** *   None
 244:Generated_Source\PSoC5/isr_i2s_rx.c **** *
 245:Generated_Source\PSoC5/isr_i2s_rx.c **** * Return:
 246:Generated_Source\PSoC5/isr_i2s_rx.c **** *   Address of the ISR in the interrupt vector table.
 247:Generated_Source\PSoC5/isr_i2s_rx.c **** *
 248:Generated_Source\PSoC5/isr_i2s_rx.c **** *******************************************************************************/
 249:Generated_Source\PSoC5/isr_i2s_rx.c **** cyisraddress isr_i2s_rx_GetVector(void)
 250:Generated_Source\PSoC5/isr_i2s_rx.c **** {
 295              		.loc 1 250 0
 296              		.cfi_startproc
 297              		@ args = 0, pretend = 0, frame = 8
 298              		@ frame_needed = 1, uses_anonymous_args = 0
 299              		@ link register save eliminated.
 300 0000 80B4     		push	{r7}
 301              		.cfi_def_cfa_offset 4
 302              		.cfi_offset 7, -4
 303 0002 83B0     		sub	sp, sp, #12
 304              		.cfi_def_cfa_offset 16
 305 0004 00AF     		add	r7, sp, #0
 306              		.cfi_def_cfa_register 7
 251:Generated_Source\PSoC5/isr_i2s_rx.c ****     cyisraddress * ramVectorTable;
 252:Generated_Source\PSoC5/isr_i2s_rx.c **** 
 253:Generated_Source\PSoC5/isr_i2s_rx.c ****     ramVectorTable = (cyisraddress *) *CYINT_VECT_TABLE;
 307              		.loc 1 253 0
 308 0006 054B     		ldr	r3, .L21
 309 0008 1B68     		ldr	r3, [r3]
 310 000a 7B60     		str	r3, [r7, #4]
 254:Generated_Source\PSoC5/isr_i2s_rx.c **** 
 255:Generated_Source\PSoC5/isr_i2s_rx.c ****     return ramVectorTable[CYINT_IRQ_BASE + (uint32)isr_i2s_rx__INTC_NUMBER];
 311              		.loc 1 255 0
 312 000c 7B68     		ldr	r3, [r7, #4]
 313 000e 9B6C     		ldr	r3, [r3, #72]
ARM GAS  C:\Users\pearlstl\AppData\Local\Temp\ccqRtGuC.s 			page 11


 256:Generated_Source\PSoC5/isr_i2s_rx.c **** }
 314              		.loc 1 256 0
 315 0010 1846     		mov	r0, r3
 316 0012 0C37     		adds	r7, r7, #12
 317              		.cfi_def_cfa_offset 4
 318 0014 BD46     		mov	sp, r7
 319              		.cfi_def_cfa_register 13
 320              		@ sp needed
 321 0016 80BC     		pop	{r7}
 322              		.cfi_restore 7
 323              		.cfi_def_cfa_offset 0
 324 0018 7047     		bx	lr
 325              	.L22:
 326 001a 00BF     		.align	2
 327              	.L21:
 328 001c 08ED00E0 		.word	-536810232
 329              		.cfi_endproc
 330              	.LFE68:
 331              		.size	isr_i2s_rx_GetVector, .-isr_i2s_rx_GetVector
 332              		.section	.text.isr_i2s_rx_SetPriority,"ax",%progbits
 333              		.align	2
 334              		.global	isr_i2s_rx_SetPriority
 335              		.thumb
 336              		.thumb_func
 337              		.type	isr_i2s_rx_SetPriority, %function
 338              	isr_i2s_rx_SetPriority:
 339              	.LFB69:
 257:Generated_Source\PSoC5/isr_i2s_rx.c **** 
 258:Generated_Source\PSoC5/isr_i2s_rx.c **** 
 259:Generated_Source\PSoC5/isr_i2s_rx.c **** /*******************************************************************************
 260:Generated_Source\PSoC5/isr_i2s_rx.c **** * Function Name: isr_i2s_rx_SetPriority
 261:Generated_Source\PSoC5/isr_i2s_rx.c **** ********************************************************************************
 262:Generated_Source\PSoC5/isr_i2s_rx.c **** *
 263:Generated_Source\PSoC5/isr_i2s_rx.c **** * Summary:
 264:Generated_Source\PSoC5/isr_i2s_rx.c **** *   Sets the Priority of the Interrupt. 
 265:Generated_Source\PSoC5/isr_i2s_rx.c **** *
 266:Generated_Source\PSoC5/isr_i2s_rx.c **** *   Note calling isr_i2s_rx_Start or isr_i2s_rx_StartEx will 
 267:Generated_Source\PSoC5/isr_i2s_rx.c **** *   override any effect this API would have had. This API should only be called
 268:Generated_Source\PSoC5/isr_i2s_rx.c **** *   after isr_i2s_rx_Start or isr_i2s_rx_StartEx has been called. 
 269:Generated_Source\PSoC5/isr_i2s_rx.c **** *   To set the initial priority for the component, use the Design-Wide Resources
 270:Generated_Source\PSoC5/isr_i2s_rx.c **** *   Interrupt Editor.
 271:Generated_Source\PSoC5/isr_i2s_rx.c **** *
 272:Generated_Source\PSoC5/isr_i2s_rx.c **** *   Note This API has no effect on Non-maskable interrupt NMI).
 273:Generated_Source\PSoC5/isr_i2s_rx.c **** *
 274:Generated_Source\PSoC5/isr_i2s_rx.c **** * Parameters:
 275:Generated_Source\PSoC5/isr_i2s_rx.c **** *   priority: Priority of the interrupt, 0 being the highest priority
 276:Generated_Source\PSoC5/isr_i2s_rx.c **** *             PSoC 3 and PSoC 5LP: Priority is from 0 to 7.
 277:Generated_Source\PSoC5/isr_i2s_rx.c **** *             PSoC 4: Priority is from 0 to 3.
 278:Generated_Source\PSoC5/isr_i2s_rx.c **** *
 279:Generated_Source\PSoC5/isr_i2s_rx.c **** * Return:
 280:Generated_Source\PSoC5/isr_i2s_rx.c **** *   None
 281:Generated_Source\PSoC5/isr_i2s_rx.c **** *
 282:Generated_Source\PSoC5/isr_i2s_rx.c **** *******************************************************************************/
 283:Generated_Source\PSoC5/isr_i2s_rx.c **** void isr_i2s_rx_SetPriority(uint8 priority)
 284:Generated_Source\PSoC5/isr_i2s_rx.c **** {
 340              		.loc 1 284 0
 341              		.cfi_startproc
ARM GAS  C:\Users\pearlstl\AppData\Local\Temp\ccqRtGuC.s 			page 12


 342              		@ args = 0, pretend = 0, frame = 8
 343              		@ frame_needed = 1, uses_anonymous_args = 0
 344              		@ link register save eliminated.
 345 0000 80B4     		push	{r7}
 346              		.cfi_def_cfa_offset 4
 347              		.cfi_offset 7, -4
 348 0002 83B0     		sub	sp, sp, #12
 349              		.cfi_def_cfa_offset 16
 350 0004 00AF     		add	r7, sp, #0
 351              		.cfi_def_cfa_register 7
 352 0006 0346     		mov	r3, r0
 353 0008 FB71     		strb	r3, [r7, #7]
 285:Generated_Source\PSoC5/isr_i2s_rx.c ****     *isr_i2s_rx_INTC_PRIOR = priority << 5;
 354              		.loc 1 285 0
 355 000a 054A     		ldr	r2, .L24
 356 000c FB79     		ldrb	r3, [r7, #7]
 357 000e 5B01     		lsls	r3, r3, #5
 358 0010 DBB2     		uxtb	r3, r3
 359 0012 1370     		strb	r3, [r2]
 286:Generated_Source\PSoC5/isr_i2s_rx.c **** }
 360              		.loc 1 286 0
 361 0014 00BF     		nop
 362 0016 0C37     		adds	r7, r7, #12
 363              		.cfi_def_cfa_offset 4
 364 0018 BD46     		mov	sp, r7
 365              		.cfi_def_cfa_register 13
 366              		@ sp needed
 367 001a 80BC     		pop	{r7}
 368              		.cfi_restore 7
 369              		.cfi_def_cfa_offset 0
 370 001c 7047     		bx	lr
 371              	.L25:
 372 001e 00BF     		.align	2
 373              	.L24:
 374 0020 02E400E0 		.word	-536812542
 375              		.cfi_endproc
 376              	.LFE69:
 377              		.size	isr_i2s_rx_SetPriority, .-isr_i2s_rx_SetPriority
 378              		.section	.text.isr_i2s_rx_GetPriority,"ax",%progbits
 379              		.align	2
 380              		.global	isr_i2s_rx_GetPriority
 381              		.thumb
 382              		.thumb_func
 383              		.type	isr_i2s_rx_GetPriority, %function
 384              	isr_i2s_rx_GetPriority:
 385              	.LFB70:
 287:Generated_Source\PSoC5/isr_i2s_rx.c **** 
 288:Generated_Source\PSoC5/isr_i2s_rx.c **** 
 289:Generated_Source\PSoC5/isr_i2s_rx.c **** /*******************************************************************************
 290:Generated_Source\PSoC5/isr_i2s_rx.c **** * Function Name: isr_i2s_rx_GetPriority
 291:Generated_Source\PSoC5/isr_i2s_rx.c **** ********************************************************************************
 292:Generated_Source\PSoC5/isr_i2s_rx.c **** *
 293:Generated_Source\PSoC5/isr_i2s_rx.c **** * Summary:
 294:Generated_Source\PSoC5/isr_i2s_rx.c **** *   Gets the Priority of the Interrupt.
 295:Generated_Source\PSoC5/isr_i2s_rx.c **** *
 296:Generated_Source\PSoC5/isr_i2s_rx.c **** * Parameters:
 297:Generated_Source\PSoC5/isr_i2s_rx.c **** *   None
ARM GAS  C:\Users\pearlstl\AppData\Local\Temp\ccqRtGuC.s 			page 13


 298:Generated_Source\PSoC5/isr_i2s_rx.c **** *
 299:Generated_Source\PSoC5/isr_i2s_rx.c **** * Return:
 300:Generated_Source\PSoC5/isr_i2s_rx.c **** *   Priority of the interrupt, 0 being the highest priority
 301:Generated_Source\PSoC5/isr_i2s_rx.c **** *    PSoC 3 and PSoC 5LP: Priority is from 0 to 7.
 302:Generated_Source\PSoC5/isr_i2s_rx.c **** *    PSoC 4: Priority is from 0 to 3.
 303:Generated_Source\PSoC5/isr_i2s_rx.c **** *
 304:Generated_Source\PSoC5/isr_i2s_rx.c **** *******************************************************************************/
 305:Generated_Source\PSoC5/isr_i2s_rx.c **** uint8 isr_i2s_rx_GetPriority(void)
 306:Generated_Source\PSoC5/isr_i2s_rx.c **** {
 386              		.loc 1 306 0
 387              		.cfi_startproc
 388              		@ args = 0, pretend = 0, frame = 8
 389              		@ frame_needed = 1, uses_anonymous_args = 0
 390              		@ link register save eliminated.
 391 0000 80B4     		push	{r7}
 392              		.cfi_def_cfa_offset 4
 393              		.cfi_offset 7, -4
 394 0002 83B0     		sub	sp, sp, #12
 395              		.cfi_def_cfa_offset 16
 396 0004 00AF     		add	r7, sp, #0
 397              		.cfi_def_cfa_register 7
 307:Generated_Source\PSoC5/isr_i2s_rx.c ****     uint8 priority;
 308:Generated_Source\PSoC5/isr_i2s_rx.c **** 
 309:Generated_Source\PSoC5/isr_i2s_rx.c **** 
 310:Generated_Source\PSoC5/isr_i2s_rx.c ****     priority = *isr_i2s_rx_INTC_PRIOR >> 5;
 398              		.loc 1 310 0
 399 0006 054B     		ldr	r3, .L28
 400 0008 1B78     		ldrb	r3, [r3]
 401 000a DBB2     		uxtb	r3, r3
 402 000c 5B09     		lsrs	r3, r3, #5
 403 000e FB71     		strb	r3, [r7, #7]
 311:Generated_Source\PSoC5/isr_i2s_rx.c **** 
 312:Generated_Source\PSoC5/isr_i2s_rx.c ****     return priority;
 404              		.loc 1 312 0
 405 0010 FB79     		ldrb	r3, [r7, #7]	@ zero_extendqisi2
 313:Generated_Source\PSoC5/isr_i2s_rx.c **** }
 406              		.loc 1 313 0
 407 0012 1846     		mov	r0, r3
 408 0014 0C37     		adds	r7, r7, #12
 409              		.cfi_def_cfa_offset 4
 410 0016 BD46     		mov	sp, r7
 411              		.cfi_def_cfa_register 13
 412              		@ sp needed
 413 0018 80BC     		pop	{r7}
 414              		.cfi_restore 7
 415              		.cfi_def_cfa_offset 0
 416 001a 7047     		bx	lr
 417              	.L29:
 418              		.align	2
 419              	.L28:
 420 001c 02E400E0 		.word	-536812542
 421              		.cfi_endproc
 422              	.LFE70:
 423              		.size	isr_i2s_rx_GetPriority, .-isr_i2s_rx_GetPriority
 424              		.section	.text.isr_i2s_rx_Enable,"ax",%progbits
 425              		.align	2
 426              		.global	isr_i2s_rx_Enable
ARM GAS  C:\Users\pearlstl\AppData\Local\Temp\ccqRtGuC.s 			page 14


 427              		.thumb
 428              		.thumb_func
 429              		.type	isr_i2s_rx_Enable, %function
 430              	isr_i2s_rx_Enable:
 431              	.LFB71:
 314:Generated_Source\PSoC5/isr_i2s_rx.c **** 
 315:Generated_Source\PSoC5/isr_i2s_rx.c **** 
 316:Generated_Source\PSoC5/isr_i2s_rx.c **** /*******************************************************************************
 317:Generated_Source\PSoC5/isr_i2s_rx.c **** * Function Name: isr_i2s_rx_Enable
 318:Generated_Source\PSoC5/isr_i2s_rx.c **** ********************************************************************************
 319:Generated_Source\PSoC5/isr_i2s_rx.c **** *
 320:Generated_Source\PSoC5/isr_i2s_rx.c **** * Summary:
 321:Generated_Source\PSoC5/isr_i2s_rx.c **** *   Enables the interrupt to the interrupt controller. Do not call this function
 322:Generated_Source\PSoC5/isr_i2s_rx.c **** *   unless ISR_Start() has been called or the functionality of the ISR_Start() 
 323:Generated_Source\PSoC5/isr_i2s_rx.c **** *   function, which sets the vector and the priority, has been called.
 324:Generated_Source\PSoC5/isr_i2s_rx.c **** *
 325:Generated_Source\PSoC5/isr_i2s_rx.c **** * Parameters:
 326:Generated_Source\PSoC5/isr_i2s_rx.c **** *   None
 327:Generated_Source\PSoC5/isr_i2s_rx.c **** *
 328:Generated_Source\PSoC5/isr_i2s_rx.c **** * Return:
 329:Generated_Source\PSoC5/isr_i2s_rx.c **** *   None
 330:Generated_Source\PSoC5/isr_i2s_rx.c **** *
 331:Generated_Source\PSoC5/isr_i2s_rx.c **** *******************************************************************************/
 332:Generated_Source\PSoC5/isr_i2s_rx.c **** void isr_i2s_rx_Enable(void)
 333:Generated_Source\PSoC5/isr_i2s_rx.c **** {
 432              		.loc 1 333 0
 433              		.cfi_startproc
 434              		@ args = 0, pretend = 0, frame = 0
 435              		@ frame_needed = 1, uses_anonymous_args = 0
 436              		@ link register save eliminated.
 437 0000 80B4     		push	{r7}
 438              		.cfi_def_cfa_offset 4
 439              		.cfi_offset 7, -4
 440 0002 00AF     		add	r7, sp, #0
 441              		.cfi_def_cfa_register 7
 334:Generated_Source\PSoC5/isr_i2s_rx.c ****     /* Enable the general interrupt. */
 335:Generated_Source\PSoC5/isr_i2s_rx.c ****     *isr_i2s_rx_INTC_SET_EN = isr_i2s_rx__INTC_MASK;
 442              		.loc 1 335 0
 443 0004 034B     		ldr	r3, .L31
 444 0006 0422     		movs	r2, #4
 445 0008 1A60     		str	r2, [r3]
 336:Generated_Source\PSoC5/isr_i2s_rx.c **** }
 446              		.loc 1 336 0
 447 000a 00BF     		nop
 448 000c BD46     		mov	sp, r7
 449              		.cfi_def_cfa_register 13
 450              		@ sp needed
 451 000e 80BC     		pop	{r7}
 452              		.cfi_restore 7
 453              		.cfi_def_cfa_offset 0
 454 0010 7047     		bx	lr
 455              	.L32:
 456 0012 00BF     		.align	2
 457              	.L31:
 458 0014 00E100E0 		.word	-536813312
 459              		.cfi_endproc
 460              	.LFE71:
ARM GAS  C:\Users\pearlstl\AppData\Local\Temp\ccqRtGuC.s 			page 15


 461              		.size	isr_i2s_rx_Enable, .-isr_i2s_rx_Enable
 462              		.section	.text.isr_i2s_rx_GetState,"ax",%progbits
 463              		.align	2
 464              		.global	isr_i2s_rx_GetState
 465              		.thumb
 466              		.thumb_func
 467              		.type	isr_i2s_rx_GetState, %function
 468              	isr_i2s_rx_GetState:
 469              	.LFB72:
 337:Generated_Source\PSoC5/isr_i2s_rx.c **** 
 338:Generated_Source\PSoC5/isr_i2s_rx.c **** 
 339:Generated_Source\PSoC5/isr_i2s_rx.c **** /*******************************************************************************
 340:Generated_Source\PSoC5/isr_i2s_rx.c **** * Function Name: isr_i2s_rx_GetState
 341:Generated_Source\PSoC5/isr_i2s_rx.c **** ********************************************************************************
 342:Generated_Source\PSoC5/isr_i2s_rx.c **** *
 343:Generated_Source\PSoC5/isr_i2s_rx.c **** * Summary:
 344:Generated_Source\PSoC5/isr_i2s_rx.c **** *   Gets the state (enabled, disabled) of the Interrupt.
 345:Generated_Source\PSoC5/isr_i2s_rx.c **** *
 346:Generated_Source\PSoC5/isr_i2s_rx.c **** * Parameters:
 347:Generated_Source\PSoC5/isr_i2s_rx.c **** *   None
 348:Generated_Source\PSoC5/isr_i2s_rx.c **** *
 349:Generated_Source\PSoC5/isr_i2s_rx.c **** * Return:
 350:Generated_Source\PSoC5/isr_i2s_rx.c **** *   1 if enabled, 0 if disabled.
 351:Generated_Source\PSoC5/isr_i2s_rx.c **** *
 352:Generated_Source\PSoC5/isr_i2s_rx.c **** *******************************************************************************/
 353:Generated_Source\PSoC5/isr_i2s_rx.c **** uint8 isr_i2s_rx_GetState(void)
 354:Generated_Source\PSoC5/isr_i2s_rx.c **** {
 470              		.loc 1 354 0
 471              		.cfi_startproc
 472              		@ args = 0, pretend = 0, frame = 0
 473              		@ frame_needed = 1, uses_anonymous_args = 0
 474              		@ link register save eliminated.
 475 0000 80B4     		push	{r7}
 476              		.cfi_def_cfa_offset 4
 477              		.cfi_offset 7, -4
 478 0002 00AF     		add	r7, sp, #0
 479              		.cfi_def_cfa_register 7
 355:Generated_Source\PSoC5/isr_i2s_rx.c ****     /* Get the state of the general interrupt. */
 356:Generated_Source\PSoC5/isr_i2s_rx.c ****     return ((*isr_i2s_rx_INTC_SET_EN & (uint32)isr_i2s_rx__INTC_MASK) != 0u) ? 1u:0u;
 480              		.loc 1 356 0
 481 0004 064B     		ldr	r3, .L37
 482 0006 1B68     		ldr	r3, [r3]
 483 0008 03F00403 		and	r3, r3, #4
 484 000c 002B     		cmp	r3, #0
 485 000e 01D0     		beq	.L34
 486              		.loc 1 356 0 is_stmt 0 discriminator 1
 487 0010 0123     		movs	r3, #1
 488 0012 00E0     		b	.L35
 489              	.L34:
 490              		.loc 1 356 0 discriminator 2
 491 0014 0023     		movs	r3, #0
 492              	.L35:
 357:Generated_Source\PSoC5/isr_i2s_rx.c **** }
 493              		.loc 1 357 0 is_stmt 1 discriminator 4
 494 0016 1846     		mov	r0, r3
 495 0018 BD46     		mov	sp, r7
 496              		.cfi_def_cfa_register 13
ARM GAS  C:\Users\pearlstl\AppData\Local\Temp\ccqRtGuC.s 			page 16


 497              		@ sp needed
 498 001a 80BC     		pop	{r7}
 499              		.cfi_restore 7
 500              		.cfi_def_cfa_offset 0
 501 001c 7047     		bx	lr
 502              	.L38:
 503 001e 00BF     		.align	2
 504              	.L37:
 505 0020 00E100E0 		.word	-536813312
 506              		.cfi_endproc
 507              	.LFE72:
 508              		.size	isr_i2s_rx_GetState, .-isr_i2s_rx_GetState
 509              		.section	.text.isr_i2s_rx_Disable,"ax",%progbits
 510              		.align	2
 511              		.global	isr_i2s_rx_Disable
 512              		.thumb
 513              		.thumb_func
 514              		.type	isr_i2s_rx_Disable, %function
 515              	isr_i2s_rx_Disable:
 516              	.LFB73:
 358:Generated_Source\PSoC5/isr_i2s_rx.c **** 
 359:Generated_Source\PSoC5/isr_i2s_rx.c **** 
 360:Generated_Source\PSoC5/isr_i2s_rx.c **** /*******************************************************************************
 361:Generated_Source\PSoC5/isr_i2s_rx.c **** * Function Name: isr_i2s_rx_Disable
 362:Generated_Source\PSoC5/isr_i2s_rx.c **** ********************************************************************************
 363:Generated_Source\PSoC5/isr_i2s_rx.c **** *
 364:Generated_Source\PSoC5/isr_i2s_rx.c **** * Summary:
 365:Generated_Source\PSoC5/isr_i2s_rx.c **** *   Disables the Interrupt in the interrupt controller.
 366:Generated_Source\PSoC5/isr_i2s_rx.c **** *
 367:Generated_Source\PSoC5/isr_i2s_rx.c **** * Parameters:
 368:Generated_Source\PSoC5/isr_i2s_rx.c **** *   None
 369:Generated_Source\PSoC5/isr_i2s_rx.c **** *
 370:Generated_Source\PSoC5/isr_i2s_rx.c **** * Return:
 371:Generated_Source\PSoC5/isr_i2s_rx.c **** *   None
 372:Generated_Source\PSoC5/isr_i2s_rx.c **** *
 373:Generated_Source\PSoC5/isr_i2s_rx.c **** *******************************************************************************/
 374:Generated_Source\PSoC5/isr_i2s_rx.c **** void isr_i2s_rx_Disable(void)
 375:Generated_Source\PSoC5/isr_i2s_rx.c **** {
 517              		.loc 1 375 0
 518              		.cfi_startproc
 519              		@ args = 0, pretend = 0, frame = 0
 520              		@ frame_needed = 1, uses_anonymous_args = 0
 521              		@ link register save eliminated.
 522 0000 80B4     		push	{r7}
 523              		.cfi_def_cfa_offset 4
 524              		.cfi_offset 7, -4
 525 0002 00AF     		add	r7, sp, #0
 526              		.cfi_def_cfa_register 7
 376:Generated_Source\PSoC5/isr_i2s_rx.c ****     /* Disable the general interrupt. */
 377:Generated_Source\PSoC5/isr_i2s_rx.c ****     *isr_i2s_rx_INTC_CLR_EN = isr_i2s_rx__INTC_MASK;
 527              		.loc 1 377 0
 528 0004 034B     		ldr	r3, .L40
 529 0006 0422     		movs	r2, #4
 530 0008 1A60     		str	r2, [r3]
 378:Generated_Source\PSoC5/isr_i2s_rx.c **** }
 531              		.loc 1 378 0
 532 000a 00BF     		nop
ARM GAS  C:\Users\pearlstl\AppData\Local\Temp\ccqRtGuC.s 			page 17


 533 000c BD46     		mov	sp, r7
 534              		.cfi_def_cfa_register 13
 535              		@ sp needed
 536 000e 80BC     		pop	{r7}
 537              		.cfi_restore 7
 538              		.cfi_def_cfa_offset 0
 539 0010 7047     		bx	lr
 540              	.L41:
 541 0012 00BF     		.align	2
 542              	.L40:
 543 0014 80E100E0 		.word	-536813184
 544              		.cfi_endproc
 545              	.LFE73:
 546              		.size	isr_i2s_rx_Disable, .-isr_i2s_rx_Disable
 547              		.section	.text.isr_i2s_rx_SetPending,"ax",%progbits
 548              		.align	2
 549              		.global	isr_i2s_rx_SetPending
 550              		.thumb
 551              		.thumb_func
 552              		.type	isr_i2s_rx_SetPending, %function
 553              	isr_i2s_rx_SetPending:
 554              	.LFB74:
 379:Generated_Source\PSoC5/isr_i2s_rx.c **** 
 380:Generated_Source\PSoC5/isr_i2s_rx.c **** 
 381:Generated_Source\PSoC5/isr_i2s_rx.c **** /*******************************************************************************
 382:Generated_Source\PSoC5/isr_i2s_rx.c **** * Function Name: isr_i2s_rx_SetPending
 383:Generated_Source\PSoC5/isr_i2s_rx.c **** ********************************************************************************
 384:Generated_Source\PSoC5/isr_i2s_rx.c **** *
 385:Generated_Source\PSoC5/isr_i2s_rx.c **** * Summary:
 386:Generated_Source\PSoC5/isr_i2s_rx.c **** *   Causes the Interrupt to enter the pending state, a software method of
 387:Generated_Source\PSoC5/isr_i2s_rx.c **** *   generating the interrupt.
 388:Generated_Source\PSoC5/isr_i2s_rx.c **** *
 389:Generated_Source\PSoC5/isr_i2s_rx.c **** * Parameters:
 390:Generated_Source\PSoC5/isr_i2s_rx.c **** *   None
 391:Generated_Source\PSoC5/isr_i2s_rx.c **** *
 392:Generated_Source\PSoC5/isr_i2s_rx.c **** * Return:
 393:Generated_Source\PSoC5/isr_i2s_rx.c **** *   None
 394:Generated_Source\PSoC5/isr_i2s_rx.c **** *
 395:Generated_Source\PSoC5/isr_i2s_rx.c **** * Side Effects:
 396:Generated_Source\PSoC5/isr_i2s_rx.c **** *   If interrupts are enabled and the interrupt is set up properly, the ISR is
 397:Generated_Source\PSoC5/isr_i2s_rx.c **** *   entered (depending on the priority of this interrupt and other pending 
 398:Generated_Source\PSoC5/isr_i2s_rx.c **** *   interrupts).
 399:Generated_Source\PSoC5/isr_i2s_rx.c **** *
 400:Generated_Source\PSoC5/isr_i2s_rx.c **** *******************************************************************************/
 401:Generated_Source\PSoC5/isr_i2s_rx.c **** void isr_i2s_rx_SetPending(void)
 402:Generated_Source\PSoC5/isr_i2s_rx.c **** {
 555              		.loc 1 402 0
 556              		.cfi_startproc
 557              		@ args = 0, pretend = 0, frame = 0
 558              		@ frame_needed = 1, uses_anonymous_args = 0
 559              		@ link register save eliminated.
 560 0000 80B4     		push	{r7}
 561              		.cfi_def_cfa_offset 4
 562              		.cfi_offset 7, -4
 563 0002 00AF     		add	r7, sp, #0
 564              		.cfi_def_cfa_register 7
 403:Generated_Source\PSoC5/isr_i2s_rx.c ****     *isr_i2s_rx_INTC_SET_PD = isr_i2s_rx__INTC_MASK;
ARM GAS  C:\Users\pearlstl\AppData\Local\Temp\ccqRtGuC.s 			page 18


 565              		.loc 1 403 0
 566 0004 034B     		ldr	r3, .L43
 567 0006 0422     		movs	r2, #4
 568 0008 1A60     		str	r2, [r3]
 404:Generated_Source\PSoC5/isr_i2s_rx.c **** }
 569              		.loc 1 404 0
 570 000a 00BF     		nop
 571 000c BD46     		mov	sp, r7
 572              		.cfi_def_cfa_register 13
 573              		@ sp needed
 574 000e 80BC     		pop	{r7}
 575              		.cfi_restore 7
 576              		.cfi_def_cfa_offset 0
 577 0010 7047     		bx	lr
 578              	.L44:
 579 0012 00BF     		.align	2
 580              	.L43:
 581 0014 00E200E0 		.word	-536813056
 582              		.cfi_endproc
 583              	.LFE74:
 584              		.size	isr_i2s_rx_SetPending, .-isr_i2s_rx_SetPending
 585              		.section	.text.isr_i2s_rx_ClearPending,"ax",%progbits
 586              		.align	2
 587              		.global	isr_i2s_rx_ClearPending
 588              		.thumb
 589              		.thumb_func
 590              		.type	isr_i2s_rx_ClearPending, %function
 591              	isr_i2s_rx_ClearPending:
 592              	.LFB75:
 405:Generated_Source\PSoC5/isr_i2s_rx.c **** 
 406:Generated_Source\PSoC5/isr_i2s_rx.c **** 
 407:Generated_Source\PSoC5/isr_i2s_rx.c **** /*******************************************************************************
 408:Generated_Source\PSoC5/isr_i2s_rx.c **** * Function Name: isr_i2s_rx_ClearPending
 409:Generated_Source\PSoC5/isr_i2s_rx.c **** ********************************************************************************
 410:Generated_Source\PSoC5/isr_i2s_rx.c **** *
 411:Generated_Source\PSoC5/isr_i2s_rx.c **** * Summary:
 412:Generated_Source\PSoC5/isr_i2s_rx.c **** *   Clears a pending interrupt in the interrupt controller.
 413:Generated_Source\PSoC5/isr_i2s_rx.c **** *
 414:Generated_Source\PSoC5/isr_i2s_rx.c **** *   Note Some interrupt sources are clear-on-read and require the block 
 415:Generated_Source\PSoC5/isr_i2s_rx.c **** *   interrupt/status register to be read/cleared with the appropriate block API 
 416:Generated_Source\PSoC5/isr_i2s_rx.c **** *   (GPIO, UART, and so on). Otherwise the ISR will continue to remain in 
 417:Generated_Source\PSoC5/isr_i2s_rx.c **** *   pending state even though the interrupt itself is cleared using this API.
 418:Generated_Source\PSoC5/isr_i2s_rx.c **** *
 419:Generated_Source\PSoC5/isr_i2s_rx.c **** * Parameters:
 420:Generated_Source\PSoC5/isr_i2s_rx.c **** *   None
 421:Generated_Source\PSoC5/isr_i2s_rx.c **** *
 422:Generated_Source\PSoC5/isr_i2s_rx.c **** * Return:
 423:Generated_Source\PSoC5/isr_i2s_rx.c **** *   None
 424:Generated_Source\PSoC5/isr_i2s_rx.c **** *
 425:Generated_Source\PSoC5/isr_i2s_rx.c **** *******************************************************************************/
 426:Generated_Source\PSoC5/isr_i2s_rx.c **** void isr_i2s_rx_ClearPending(void)
 427:Generated_Source\PSoC5/isr_i2s_rx.c **** {
 593              		.loc 1 427 0
 594              		.cfi_startproc
 595              		@ args = 0, pretend = 0, frame = 0
 596              		@ frame_needed = 1, uses_anonymous_args = 0
 597              		@ link register save eliminated.
ARM GAS  C:\Users\pearlstl\AppData\Local\Temp\ccqRtGuC.s 			page 19


 598 0000 80B4     		push	{r7}
 599              		.cfi_def_cfa_offset 4
 600              		.cfi_offset 7, -4
 601 0002 00AF     		add	r7, sp, #0
 602              		.cfi_def_cfa_register 7
 428:Generated_Source\PSoC5/isr_i2s_rx.c ****     *isr_i2s_rx_INTC_CLR_PD = isr_i2s_rx__INTC_MASK;
 603              		.loc 1 428 0
 604 0004 034B     		ldr	r3, .L46
 605 0006 0422     		movs	r2, #4
 606 0008 1A60     		str	r2, [r3]
 429:Generated_Source\PSoC5/isr_i2s_rx.c **** }
 607              		.loc 1 429 0
 608 000a 00BF     		nop
 609 000c BD46     		mov	sp, r7
 610              		.cfi_def_cfa_register 13
 611              		@ sp needed
 612 000e 80BC     		pop	{r7}
 613              		.cfi_restore 7
 614              		.cfi_def_cfa_offset 0
 615 0010 7047     		bx	lr
 616              	.L47:
 617 0012 00BF     		.align	2
 618              	.L46:
 619 0014 80E200E0 		.word	-536812928
 620              		.cfi_endproc
 621              	.LFE75:
 622              		.size	isr_i2s_rx_ClearPending, .-isr_i2s_rx_ClearPending
 623              		.bss
 624              		.align	2
 625              	word_idx.5888:
 626 0008 00000000 		.space	4
 627              		.data
 628              		.align	2
 629              		.type	byte_idx.5889, %object
 630              		.size	byte_idx.5889, 4
 631              	byte_idx.5889:
 632 0000 01000000 		.word	1
 633              		.text
 634              	.Letext0:
 635              		.file 2 "c:\\program files (x86)\\cypress\\psoc creator\\4.2\\psoc creator\\import\\gnu\\arm\\5.4.
 636              		.file 3 "c:\\program files (x86)\\cypress\\psoc creator\\4.2\\psoc creator\\import\\gnu\\arm\\5.4.
 637              		.file 4 "Generated_Source\\PSoC5/cytypes.h"
 638              		.file 5 "Generated_Source\\PSoC5/core_cm3.h"