ARM GAS  C:\Users\pearlstl\AppData\Local\Temp\ccZGnWBa.s 			page 1


   1              		.syntax unified
   2              		.cpu cortex-m3
   3              		.fpu softvfp
   4              		.eabi_attribute 20, 1
   5              		.eabi_attribute 21, 1
   6              		.eabi_attribute 23, 3
   7              		.eabi_attribute 24, 1
   8              		.eabi_attribute 25, 1
   9              		.eabi_attribute 26, 1
  10              		.eabi_attribute 30, 6
  11              		.eabi_attribute 34, 1
  12              		.eabi_attribute 18, 4
  13              		.thumb
  14              		.syntax unified
  15              		.file	"isr_adc_eoc.c"
  16              		.text
  17              	.Ltext0:
  18              		.cfi_sections	.debug_frame
  19              		.section	.text.isr_adc_eoc_Start,"ax",%progbits
  20              		.align	2
  21              		.global	isr_adc_eoc_Start
  22              		.thumb
  23              		.thumb_func
  24              		.type	isr_adc_eoc_Start, %function
  25              	isr_adc_eoc_Start:
  26              	.LFB63:
  27              		.file 1 "Generated_Source\\PSoC5\\isr_adc_eoc.c"
   1:Generated_Source\PSoC5/isr_adc_eoc.c **** /*******************************************************************************
   2:Generated_Source\PSoC5/isr_adc_eoc.c **** * File Name: isr_adc_eoc.c  
   3:Generated_Source\PSoC5/isr_adc_eoc.c **** * Version 1.70
   4:Generated_Source\PSoC5/isr_adc_eoc.c **** *
   5:Generated_Source\PSoC5/isr_adc_eoc.c **** *  Description:
   6:Generated_Source\PSoC5/isr_adc_eoc.c **** *   API for controlling the state of an interrupt.
   7:Generated_Source\PSoC5/isr_adc_eoc.c **** *
   8:Generated_Source\PSoC5/isr_adc_eoc.c **** *
   9:Generated_Source\PSoC5/isr_adc_eoc.c **** *  Note:
  10:Generated_Source\PSoC5/isr_adc_eoc.c **** *
  11:Generated_Source\PSoC5/isr_adc_eoc.c **** ********************************************************************************
  12:Generated_Source\PSoC5/isr_adc_eoc.c **** * Copyright 2008-2015, Cypress Semiconductor Corporation.  All rights reserved.
  13:Generated_Source\PSoC5/isr_adc_eoc.c **** * You may use this file only in accordance with the license, terms, conditions, 
  14:Generated_Source\PSoC5/isr_adc_eoc.c **** * disclaimers, and limitations in the end user license agreement accompanying 
  15:Generated_Source\PSoC5/isr_adc_eoc.c **** * the software package with which this file was provided.
  16:Generated_Source\PSoC5/isr_adc_eoc.c **** *******************************************************************************/
  17:Generated_Source\PSoC5/isr_adc_eoc.c **** 
  18:Generated_Source\PSoC5/isr_adc_eoc.c **** 
  19:Generated_Source\PSoC5/isr_adc_eoc.c **** #include <cydevice_trm.h>
  20:Generated_Source\PSoC5/isr_adc_eoc.c **** #include <CyLib.h>
  21:Generated_Source\PSoC5/isr_adc_eoc.c **** #include <isr_adc_eoc.h>
  22:Generated_Source\PSoC5/isr_adc_eoc.c **** #include "cyapicallbacks.h"
  23:Generated_Source\PSoC5/isr_adc_eoc.c **** 
  24:Generated_Source\PSoC5/isr_adc_eoc.c **** #if !defined(isr_adc_eoc__REMOVED) /* Check for removal by optimization */
  25:Generated_Source\PSoC5/isr_adc_eoc.c **** 
  26:Generated_Source\PSoC5/isr_adc_eoc.c **** /*******************************************************************************
  27:Generated_Source\PSoC5/isr_adc_eoc.c **** *  Place your includes, defines and code here 
  28:Generated_Source\PSoC5/isr_adc_eoc.c **** ********************************************************************************/
  29:Generated_Source\PSoC5/isr_adc_eoc.c **** /* `#START isr_adc_eoc_intc` */
  30:Generated_Source\PSoC5/isr_adc_eoc.c **** #include "project.h"
ARM GAS  C:\Users\pearlstl\AppData\Local\Temp\ccZGnWBa.s 			page 2


  31:Generated_Source\PSoC5/isr_adc_eoc.c ****     
  32:Generated_Source\PSoC5/isr_adc_eoc.c **** extern int volatile force_value;
  33:Generated_Source\PSoC5/isr_adc_eoc.c **** /* `#END` */
  34:Generated_Source\PSoC5/isr_adc_eoc.c **** 
  35:Generated_Source\PSoC5/isr_adc_eoc.c **** #ifndef CYINT_IRQ_BASE
  36:Generated_Source\PSoC5/isr_adc_eoc.c **** #define CYINT_IRQ_BASE      16
  37:Generated_Source\PSoC5/isr_adc_eoc.c **** #endif /* CYINT_IRQ_BASE */
  38:Generated_Source\PSoC5/isr_adc_eoc.c **** #ifndef CYINT_VECT_TABLE
  39:Generated_Source\PSoC5/isr_adc_eoc.c **** #define CYINT_VECT_TABLE    ((cyisraddress **) CYREG_NVIC_VECT_OFFSET)
  40:Generated_Source\PSoC5/isr_adc_eoc.c **** #endif /* CYINT_VECT_TABLE */
  41:Generated_Source\PSoC5/isr_adc_eoc.c **** 
  42:Generated_Source\PSoC5/isr_adc_eoc.c **** /* Declared in startup, used to set unused interrupts to. */
  43:Generated_Source\PSoC5/isr_adc_eoc.c **** CY_ISR_PROTO(IntDefaultHandler);
  44:Generated_Source\PSoC5/isr_adc_eoc.c **** 
  45:Generated_Source\PSoC5/isr_adc_eoc.c **** 
  46:Generated_Source\PSoC5/isr_adc_eoc.c **** /*******************************************************************************
  47:Generated_Source\PSoC5/isr_adc_eoc.c **** * Function Name: isr_adc_eoc_Start
  48:Generated_Source\PSoC5/isr_adc_eoc.c **** ********************************************************************************
  49:Generated_Source\PSoC5/isr_adc_eoc.c **** *
  50:Generated_Source\PSoC5/isr_adc_eoc.c **** * Summary:
  51:Generated_Source\PSoC5/isr_adc_eoc.c **** *  Set up the interrupt and enable it. This function disables the interrupt, 
  52:Generated_Source\PSoC5/isr_adc_eoc.c **** *  sets the default interrupt vector, sets the priority from the value in the
  53:Generated_Source\PSoC5/isr_adc_eoc.c **** *  Design Wide Resources Interrupt Editor, then enables the interrupt to the 
  54:Generated_Source\PSoC5/isr_adc_eoc.c **** *  interrupt controller.
  55:Generated_Source\PSoC5/isr_adc_eoc.c **** *
  56:Generated_Source\PSoC5/isr_adc_eoc.c **** * Parameters:  
  57:Generated_Source\PSoC5/isr_adc_eoc.c **** *   None
  58:Generated_Source\PSoC5/isr_adc_eoc.c **** *
  59:Generated_Source\PSoC5/isr_adc_eoc.c **** * Return:
  60:Generated_Source\PSoC5/isr_adc_eoc.c **** *   None
  61:Generated_Source\PSoC5/isr_adc_eoc.c **** *
  62:Generated_Source\PSoC5/isr_adc_eoc.c **** *******************************************************************************/
  63:Generated_Source\PSoC5/isr_adc_eoc.c **** void isr_adc_eoc_Start(void)
  64:Generated_Source\PSoC5/isr_adc_eoc.c **** {
  28              		.loc 1 64 0
  29              		.cfi_startproc
  30              		@ args = 0, pretend = 0, frame = 0
  31              		@ frame_needed = 1, uses_anonymous_args = 0
  32 0000 80B5     		push	{r7, lr}
  33              		.cfi_def_cfa_offset 8
  34              		.cfi_offset 7, -8
  35              		.cfi_offset 14, -4
  36 0002 00AF     		add	r7, sp, #0
  37              		.cfi_def_cfa_register 7
  65:Generated_Source\PSoC5/isr_adc_eoc.c ****     /* For all we know the interrupt is active. */
  66:Generated_Source\PSoC5/isr_adc_eoc.c ****     isr_adc_eoc_Disable();
  38              		.loc 1 66 0
  39 0004 FFF7FEFF 		bl	isr_adc_eoc_Disable
  67:Generated_Source\PSoC5/isr_adc_eoc.c **** 
  68:Generated_Source\PSoC5/isr_adc_eoc.c ****     /* Set the ISR to point to the isr_adc_eoc Interrupt. */
  69:Generated_Source\PSoC5/isr_adc_eoc.c ****     isr_adc_eoc_SetVector(&isr_adc_eoc_Interrupt);
  40              		.loc 1 69 0
  41 0008 0448     		ldr	r0, .L2
  42 000a FFF7FEFF 		bl	isr_adc_eoc_SetVector
  70:Generated_Source\PSoC5/isr_adc_eoc.c **** 
  71:Generated_Source\PSoC5/isr_adc_eoc.c ****     /* Set the priority. */
  72:Generated_Source\PSoC5/isr_adc_eoc.c ****     isr_adc_eoc_SetPriority((uint8)isr_adc_eoc_INTC_PRIOR_NUMBER);
ARM GAS  C:\Users\pearlstl\AppData\Local\Temp\ccZGnWBa.s 			page 3


  43              		.loc 1 72 0
  44 000e 0720     		movs	r0, #7
  45 0010 FFF7FEFF 		bl	isr_adc_eoc_SetPriority
  73:Generated_Source\PSoC5/isr_adc_eoc.c **** 
  74:Generated_Source\PSoC5/isr_adc_eoc.c ****     /* Enable it. */
  75:Generated_Source\PSoC5/isr_adc_eoc.c ****     isr_adc_eoc_Enable();
  46              		.loc 1 75 0
  47 0014 FFF7FEFF 		bl	isr_adc_eoc_Enable
  76:Generated_Source\PSoC5/isr_adc_eoc.c **** }
  48              		.loc 1 76 0
  49 0018 00BF     		nop
  50 001a 80BD     		pop	{r7, pc}
  51              	.L3:
  52              		.align	2
  53              	.L2:
  54 001c 00000000 		.word	isr_adc_eoc_Interrupt
  55              		.cfi_endproc
  56              	.LFE63:
  57              		.size	isr_adc_eoc_Start, .-isr_adc_eoc_Start
  58              		.section	.text.isr_adc_eoc_StartEx,"ax",%progbits
  59              		.align	2
  60              		.global	isr_adc_eoc_StartEx
  61              		.thumb
  62              		.thumb_func
  63              		.type	isr_adc_eoc_StartEx, %function
  64              	isr_adc_eoc_StartEx:
  65              	.LFB64:
  77:Generated_Source\PSoC5/isr_adc_eoc.c **** 
  78:Generated_Source\PSoC5/isr_adc_eoc.c **** 
  79:Generated_Source\PSoC5/isr_adc_eoc.c **** /*******************************************************************************
  80:Generated_Source\PSoC5/isr_adc_eoc.c **** * Function Name: isr_adc_eoc_StartEx
  81:Generated_Source\PSoC5/isr_adc_eoc.c **** ********************************************************************************
  82:Generated_Source\PSoC5/isr_adc_eoc.c **** *
  83:Generated_Source\PSoC5/isr_adc_eoc.c **** * Summary:
  84:Generated_Source\PSoC5/isr_adc_eoc.c **** *  Sets up the interrupt and enables it. This function disables the interrupt,
  85:Generated_Source\PSoC5/isr_adc_eoc.c **** *  sets the interrupt vector based on the address passed in, sets the priority 
  86:Generated_Source\PSoC5/isr_adc_eoc.c **** *  from the value in the Design Wide Resources Interrupt Editor, then enables 
  87:Generated_Source\PSoC5/isr_adc_eoc.c **** *  the interrupt to the interrupt controller.
  88:Generated_Source\PSoC5/isr_adc_eoc.c **** *  
  89:Generated_Source\PSoC5/isr_adc_eoc.c **** *  When defining ISR functions, the CY_ISR and CY_ISR_PROTO macros should be 
  90:Generated_Source\PSoC5/isr_adc_eoc.c **** *  used to provide consistent definition across compilers:
  91:Generated_Source\PSoC5/isr_adc_eoc.c **** *  
  92:Generated_Source\PSoC5/isr_adc_eoc.c **** *  Function definition example:
  93:Generated_Source\PSoC5/isr_adc_eoc.c **** *   CY_ISR(MyISR)
  94:Generated_Source\PSoC5/isr_adc_eoc.c **** *   {
  95:Generated_Source\PSoC5/isr_adc_eoc.c **** *   }
  96:Generated_Source\PSoC5/isr_adc_eoc.c **** *   Function prototype example:
  97:Generated_Source\PSoC5/isr_adc_eoc.c **** *   CY_ISR_PROTO(MyISR);
  98:Generated_Source\PSoC5/isr_adc_eoc.c **** *
  99:Generated_Source\PSoC5/isr_adc_eoc.c **** * Parameters:  
 100:Generated_Source\PSoC5/isr_adc_eoc.c **** *   address: Address of the ISR to set in the interrupt vector table.
 101:Generated_Source\PSoC5/isr_adc_eoc.c **** *
 102:Generated_Source\PSoC5/isr_adc_eoc.c **** * Return:
 103:Generated_Source\PSoC5/isr_adc_eoc.c **** *   None
 104:Generated_Source\PSoC5/isr_adc_eoc.c **** *
 105:Generated_Source\PSoC5/isr_adc_eoc.c **** *******************************************************************************/
 106:Generated_Source\PSoC5/isr_adc_eoc.c **** void isr_adc_eoc_StartEx(cyisraddress address)
ARM GAS  C:\Users\pearlstl\AppData\Local\Temp\ccZGnWBa.s 			page 4


 107:Generated_Source\PSoC5/isr_adc_eoc.c **** {
  66              		.loc 1 107 0
  67              		.cfi_startproc
  68              		@ args = 0, pretend = 0, frame = 8
  69              		@ frame_needed = 1, uses_anonymous_args = 0
  70 0000 80B5     		push	{r7, lr}
  71              		.cfi_def_cfa_offset 8
  72              		.cfi_offset 7, -8
  73              		.cfi_offset 14, -4
  74 0002 82B0     		sub	sp, sp, #8
  75              		.cfi_def_cfa_offset 16
  76 0004 00AF     		add	r7, sp, #0
  77              		.cfi_def_cfa_register 7
  78 0006 7860     		str	r0, [r7, #4]
 108:Generated_Source\PSoC5/isr_adc_eoc.c ****     /* For all we know the interrupt is active. */
 109:Generated_Source\PSoC5/isr_adc_eoc.c ****     isr_adc_eoc_Disable();
  79              		.loc 1 109 0
  80 0008 FFF7FEFF 		bl	isr_adc_eoc_Disable
 110:Generated_Source\PSoC5/isr_adc_eoc.c **** 
 111:Generated_Source\PSoC5/isr_adc_eoc.c ****     /* Set the ISR to point to the isr_adc_eoc Interrupt. */
 112:Generated_Source\PSoC5/isr_adc_eoc.c ****     isr_adc_eoc_SetVector(address);
  81              		.loc 1 112 0
  82 000c 7868     		ldr	r0, [r7, #4]
  83 000e FFF7FEFF 		bl	isr_adc_eoc_SetVector
 113:Generated_Source\PSoC5/isr_adc_eoc.c **** 
 114:Generated_Source\PSoC5/isr_adc_eoc.c ****     /* Set the priority. */
 115:Generated_Source\PSoC5/isr_adc_eoc.c ****     isr_adc_eoc_SetPriority((uint8)isr_adc_eoc_INTC_PRIOR_NUMBER);
  84              		.loc 1 115 0
  85 0012 0720     		movs	r0, #7
  86 0014 FFF7FEFF 		bl	isr_adc_eoc_SetPriority
 116:Generated_Source\PSoC5/isr_adc_eoc.c **** 
 117:Generated_Source\PSoC5/isr_adc_eoc.c ****     /* Enable it. */
 118:Generated_Source\PSoC5/isr_adc_eoc.c ****     isr_adc_eoc_Enable();
  87              		.loc 1 118 0
  88 0018 FFF7FEFF 		bl	isr_adc_eoc_Enable
 119:Generated_Source\PSoC5/isr_adc_eoc.c **** }
  89              		.loc 1 119 0
  90 001c 00BF     		nop
  91 001e 0837     		adds	r7, r7, #8
  92              		.cfi_def_cfa_offset 8
  93 0020 BD46     		mov	sp, r7
  94              		.cfi_def_cfa_register 13
  95              		@ sp needed
  96 0022 80BD     		pop	{r7, pc}
  97              		.cfi_endproc
  98              	.LFE64:
  99              		.size	isr_adc_eoc_StartEx, .-isr_adc_eoc_StartEx
 100              		.section	.text.isr_adc_eoc_Stop,"ax",%progbits
 101              		.align	2
 102              		.global	isr_adc_eoc_Stop
 103              		.thumb
 104              		.thumb_func
 105              		.type	isr_adc_eoc_Stop, %function
 106              	isr_adc_eoc_Stop:
 107              	.LFB65:
 120:Generated_Source\PSoC5/isr_adc_eoc.c **** 
 121:Generated_Source\PSoC5/isr_adc_eoc.c **** 
ARM GAS  C:\Users\pearlstl\AppData\Local\Temp\ccZGnWBa.s 			page 5


 122:Generated_Source\PSoC5/isr_adc_eoc.c **** /*******************************************************************************
 123:Generated_Source\PSoC5/isr_adc_eoc.c **** * Function Name: isr_adc_eoc_Stop
 124:Generated_Source\PSoC5/isr_adc_eoc.c **** ********************************************************************************
 125:Generated_Source\PSoC5/isr_adc_eoc.c **** *
 126:Generated_Source\PSoC5/isr_adc_eoc.c **** * Summary:
 127:Generated_Source\PSoC5/isr_adc_eoc.c **** *   Disables and removes the interrupt.
 128:Generated_Source\PSoC5/isr_adc_eoc.c **** *
 129:Generated_Source\PSoC5/isr_adc_eoc.c **** * Parameters:  
 130:Generated_Source\PSoC5/isr_adc_eoc.c **** *   None
 131:Generated_Source\PSoC5/isr_adc_eoc.c **** *
 132:Generated_Source\PSoC5/isr_adc_eoc.c **** * Return:
 133:Generated_Source\PSoC5/isr_adc_eoc.c **** *   None
 134:Generated_Source\PSoC5/isr_adc_eoc.c **** *
 135:Generated_Source\PSoC5/isr_adc_eoc.c **** *******************************************************************************/
 136:Generated_Source\PSoC5/isr_adc_eoc.c **** void isr_adc_eoc_Stop(void)
 137:Generated_Source\PSoC5/isr_adc_eoc.c **** {
 108              		.loc 1 137 0
 109              		.cfi_startproc
 110              		@ args = 0, pretend = 0, frame = 0
 111              		@ frame_needed = 1, uses_anonymous_args = 0
 112 0000 80B5     		push	{r7, lr}
 113              		.cfi_def_cfa_offset 8
 114              		.cfi_offset 7, -8
 115              		.cfi_offset 14, -4
 116 0002 00AF     		add	r7, sp, #0
 117              		.cfi_def_cfa_register 7
 138:Generated_Source\PSoC5/isr_adc_eoc.c ****     /* Disable this interrupt. */
 139:Generated_Source\PSoC5/isr_adc_eoc.c ****     isr_adc_eoc_Disable();
 118              		.loc 1 139 0
 119 0004 FFF7FEFF 		bl	isr_adc_eoc_Disable
 140:Generated_Source\PSoC5/isr_adc_eoc.c **** 
 141:Generated_Source\PSoC5/isr_adc_eoc.c ****     /* Set the ISR to point to the passive one. */
 142:Generated_Source\PSoC5/isr_adc_eoc.c ****     isr_adc_eoc_SetVector(&IntDefaultHandler);
 120              		.loc 1 142 0
 121 0008 0248     		ldr	r0, .L6
 122 000a FFF7FEFF 		bl	isr_adc_eoc_SetVector
 143:Generated_Source\PSoC5/isr_adc_eoc.c **** }
 123              		.loc 1 143 0
 124 000e 00BF     		nop
 125 0010 80BD     		pop	{r7, pc}
 126              	.L7:
 127 0012 00BF     		.align	2
 128              	.L6:
 129 0014 00000000 		.word	IntDefaultHandler
 130              		.cfi_endproc
 131              	.LFE65:
 132              		.size	isr_adc_eoc_Stop, .-isr_adc_eoc_Stop
 133              		.section	.text.isr_adc_eoc_Interrupt,"ax",%progbits
 134              		.align	2
 135              		.global	isr_adc_eoc_Interrupt
 136              		.thumb
 137              		.thumb_func
 138              		.type	isr_adc_eoc_Interrupt, %function
 139              	isr_adc_eoc_Interrupt:
 140              	.LFB66:
 144:Generated_Source\PSoC5/isr_adc_eoc.c **** 
 145:Generated_Source\PSoC5/isr_adc_eoc.c **** 
ARM GAS  C:\Users\pearlstl\AppData\Local\Temp\ccZGnWBa.s 			page 6


 146:Generated_Source\PSoC5/isr_adc_eoc.c **** /*******************************************************************************
 147:Generated_Source\PSoC5/isr_adc_eoc.c **** * Function Name: isr_adc_eoc_Interrupt
 148:Generated_Source\PSoC5/isr_adc_eoc.c **** ********************************************************************************
 149:Generated_Source\PSoC5/isr_adc_eoc.c **** *
 150:Generated_Source\PSoC5/isr_adc_eoc.c **** * Summary:
 151:Generated_Source\PSoC5/isr_adc_eoc.c **** *   The default Interrupt Service Routine for isr_adc_eoc.
 152:Generated_Source\PSoC5/isr_adc_eoc.c **** *
 153:Generated_Source\PSoC5/isr_adc_eoc.c **** *   Add custom code between the coments to keep the next version of this file
 154:Generated_Source\PSoC5/isr_adc_eoc.c **** *   from over writting your code.
 155:Generated_Source\PSoC5/isr_adc_eoc.c **** *
 156:Generated_Source\PSoC5/isr_adc_eoc.c **** * Parameters:  
 157:Generated_Source\PSoC5/isr_adc_eoc.c **** *
 158:Generated_Source\PSoC5/isr_adc_eoc.c **** * Return:
 159:Generated_Source\PSoC5/isr_adc_eoc.c **** *   None
 160:Generated_Source\PSoC5/isr_adc_eoc.c **** *
 161:Generated_Source\PSoC5/isr_adc_eoc.c **** *******************************************************************************/
 162:Generated_Source\PSoC5/isr_adc_eoc.c **** CY_ISR(isr_adc_eoc_Interrupt)
 163:Generated_Source\PSoC5/isr_adc_eoc.c **** {
 141              		.loc 1 163 0
 142              		.cfi_startproc
 143              		@ args = 0, pretend = 0, frame = 16
 144              		@ frame_needed = 1, uses_anonymous_args = 0
 145 0000 80B5     		push	{r7, lr}
 146              		.cfi_def_cfa_offset 8
 147              		.cfi_offset 7, -8
 148              		.cfi_offset 14, -4
 149 0002 84B0     		sub	sp, sp, #16
 150              		.cfi_def_cfa_offset 24
 151 0004 00AF     		add	r7, sp, #0
 152              		.cfi_def_cfa_register 7
 164:Generated_Source\PSoC5/isr_adc_eoc.c ****     #ifdef isr_adc_eoc_INTERRUPT_INTERRUPT_CALLBACK
 165:Generated_Source\PSoC5/isr_adc_eoc.c ****         isr_adc_eoc_Interrupt_InterruptCallback();
 166:Generated_Source\PSoC5/isr_adc_eoc.c ****     #endif /* isr_adc_eoc_INTERRUPT_INTERRUPT_CALLBACK */ 
 167:Generated_Source\PSoC5/isr_adc_eoc.c **** 
 168:Generated_Source\PSoC5/isr_adc_eoc.c ****     /*  Place your Interrupt code here. */
 169:Generated_Source\PSoC5/isr_adc_eoc.c ****     /* `#START isr_adc_eoc_Interrupt` */
 170:Generated_Source\PSoC5/isr_adc_eoc.c ****     int status;
 171:Generated_Source\PSoC5/isr_adc_eoc.c **** 
 172:Generated_Source\PSoC5/isr_adc_eoc.c **** #ifdef NDEBUG
 173:Generated_Source\PSoC5/isr_adc_eoc.c ****     P3_1_Write(1);
 174:Generated_Source\PSoC5/isr_adc_eoc.c **** #endif
 175:Generated_Source\PSoC5/isr_adc_eoc.c **** 
 176:Generated_Source\PSoC5/isr_adc_eoc.c ****     int word_idx = 0;
 153              		.loc 1 176 0
 154 0006 0023     		movs	r3, #0
 155 0008 FB60     		str	r3, [r7, #12]
 177:Generated_Source\PSoC5/isr_adc_eoc.c ****     int byte_idx = 1;
 156              		.loc 1 177 0
 157 000a 0123     		movs	r3, #1
 158 000c BB60     		str	r3, [r7, #8]
 178:Generated_Source\PSoC5/isr_adc_eoc.c ****    
 179:Generated_Source\PSoC5/isr_adc_eoc.c ****     // Get ADC result
 180:Generated_Source\PSoC5/isr_adc_eoc.c ****     int in_value = (ADC_GetResult16()<<4)-(1<<15);
 159              		.loc 1 180 0
 160 000e FFF7FEFF 		bl	ADC_GetResult16
 161 0012 0346     		mov	r3, r0
 162 0014 1B01     		lsls	r3, r3, #4
ARM GAS  C:\Users\pearlstl\AppData\Local\Temp\ccZGnWBa.s 			page 7


 163 0016 A3F50043 		sub	r3, r3, #32768
 164 001a 3B60     		str	r3, [r7]
 165              	.LBB2:
 181:Generated_Source\PSoC5/isr_adc_eoc.c ****     
 182:Generated_Source\PSoC5/isr_adc_eoc.c ****     for (int i = 0; i < 4; ++i)
 166              		.loc 1 182 0
 167 001c 0023     		movs	r3, #0
 168 001e 7B60     		str	r3, [r7, #4]
 169 0020 15E0     		b	.L9
 170              	.L11:
 183:Generated_Source\PSoC5/isr_adc_eoc.c ****     {
 184:Generated_Source\PSoC5/isr_adc_eoc.c ****         // Check for I2S_OUT write FIFO not full
 185:Generated_Source\PSoC5/isr_adc_eoc.c ****         //while (!(I2S_ReadTxStatus() & I2S_TX_FIFO_0_NOT_FULL)) {}
 186:Generated_Source\PSoC5/isr_adc_eoc.c ****         
 187:Generated_Source\PSoC5/isr_adc_eoc.c ****         //I2S_WriteByte( (force_value >> (8*byte_idx))& 0xFF, word_idx);
 188:Generated_Source\PSoC5/isr_adc_eoc.c ****         I2S_WriteByte( (in_value >> (8*byte_idx))& 0xFF, word_idx);
 171              		.loc 1 188 0
 172 0022 0E49     		ldr	r1, .L12
 173 0024 BB68     		ldr	r3, [r7, #8]
 174 0026 DB00     		lsls	r3, r3, #3
 175 0028 3A68     		ldr	r2, [r7]
 176 002a 42FA03F3 		asr	r3, r2, r3
 177 002e DBB2     		uxtb	r3, r3
 178 0030 0B70     		strb	r3, [r1]
 189:Generated_Source\PSoC5/isr_adc_eoc.c ****             
 190:Generated_Source\PSoC5/isr_adc_eoc.c ****         if (byte_idx == 0)
 179              		.loc 1 190 0
 180 0032 BB68     		ldr	r3, [r7, #8]
 181 0034 002B     		cmp	r3, #0
 182 0036 03D1     		bne	.L10
 191:Generated_Source\PSoC5/isr_adc_eoc.c ****             word_idx = 1 - word_idx;
 183              		.loc 1 191 0
 184 0038 FB68     		ldr	r3, [r7, #12]
 185 003a C3F10103 		rsb	r3, r3, #1
 186 003e FB60     		str	r3, [r7, #12]
 187              	.L10:
 192:Generated_Source\PSoC5/isr_adc_eoc.c ****         
 193:Generated_Source\PSoC5/isr_adc_eoc.c ****         byte_idx = 1 - byte_idx;
 188              		.loc 1 193 0 discriminator 2
 189 0040 BB68     		ldr	r3, [r7, #8]
 190 0042 C3F10103 		rsb	r3, r3, #1
 191 0046 BB60     		str	r3, [r7, #8]
 182:Generated_Source\PSoC5/isr_adc_eoc.c ****     {
 192              		.loc 1 182 0 discriminator 2
 193 0048 7B68     		ldr	r3, [r7, #4]
 194 004a 0133     		adds	r3, r3, #1
 195 004c 7B60     		str	r3, [r7, #4]
 196              	.L9:
 182:Generated_Source\PSoC5/isr_adc_eoc.c ****     {
 197              		.loc 1 182 0 is_stmt 0 discriminator 1
 198 004e 7B68     		ldr	r3, [r7, #4]
 199 0050 032B     		cmp	r3, #3
 200 0052 E6DD     		ble	.L11
 201              	.LBE2:
 194:Generated_Source\PSoC5/isr_adc_eoc.c ****     }
 195:Generated_Source\PSoC5/isr_adc_eoc.c **** #ifdef NDEBUG
 196:Generated_Source\PSoC5/isr_adc_eoc.c ****     P3_1_Write(0);
ARM GAS  C:\Users\pearlstl\AppData\Local\Temp\ccZGnWBa.s 			page 8


 197:Generated_Source\PSoC5/isr_adc_eoc.c **** #endif
 198:Generated_Source\PSoC5/isr_adc_eoc.c ****     /* `#END` */
 199:Generated_Source\PSoC5/isr_adc_eoc.c **** }
 202              		.loc 1 199 0 is_stmt 1
 203 0054 00BF     		nop
 204 0056 1037     		adds	r7, r7, #16
 205              		.cfi_def_cfa_offset 8
 206 0058 BD46     		mov	sp, r7
 207              		.cfi_def_cfa_register 13
 208              		@ sp needed
 209 005a 80BD     		pop	{r7, pc}
 210              	.L13:
 211              		.align	2
 212              	.L12:
 213 005c 40640040 		.word	1073767488
 214              		.cfi_endproc
 215              	.LFE66:
 216              		.size	isr_adc_eoc_Interrupt, .-isr_adc_eoc_Interrupt
 217              		.section	.text.isr_adc_eoc_SetVector,"ax",%progbits
 218              		.align	2
 219              		.global	isr_adc_eoc_SetVector
 220              		.thumb
 221              		.thumb_func
 222              		.type	isr_adc_eoc_SetVector, %function
 223              	isr_adc_eoc_SetVector:
 224              	.LFB67:
 200:Generated_Source\PSoC5/isr_adc_eoc.c **** 
 201:Generated_Source\PSoC5/isr_adc_eoc.c **** 
 202:Generated_Source\PSoC5/isr_adc_eoc.c **** /*******************************************************************************
 203:Generated_Source\PSoC5/isr_adc_eoc.c **** * Function Name: isr_adc_eoc_SetVector
 204:Generated_Source\PSoC5/isr_adc_eoc.c **** ********************************************************************************
 205:Generated_Source\PSoC5/isr_adc_eoc.c **** *
 206:Generated_Source\PSoC5/isr_adc_eoc.c **** * Summary:
 207:Generated_Source\PSoC5/isr_adc_eoc.c **** *   Change the ISR vector for the Interrupt. Note calling isr_adc_eoc_Start
 208:Generated_Source\PSoC5/isr_adc_eoc.c **** *   will override any effect this method would have had. To set the vector 
 209:Generated_Source\PSoC5/isr_adc_eoc.c **** *   before the component has been started use isr_adc_eoc_StartEx instead.
 210:Generated_Source\PSoC5/isr_adc_eoc.c **** * 
 211:Generated_Source\PSoC5/isr_adc_eoc.c **** *   When defining ISR functions, the CY_ISR and CY_ISR_PROTO macros should be 
 212:Generated_Source\PSoC5/isr_adc_eoc.c **** *   used to provide consistent definition across compilers:
 213:Generated_Source\PSoC5/isr_adc_eoc.c **** *
 214:Generated_Source\PSoC5/isr_adc_eoc.c **** *   Function definition example:
 215:Generated_Source\PSoC5/isr_adc_eoc.c **** *   CY_ISR(MyISR)
 216:Generated_Source\PSoC5/isr_adc_eoc.c **** *   {
 217:Generated_Source\PSoC5/isr_adc_eoc.c **** *   }
 218:Generated_Source\PSoC5/isr_adc_eoc.c **** *
 219:Generated_Source\PSoC5/isr_adc_eoc.c **** *   Function prototype example:
 220:Generated_Source\PSoC5/isr_adc_eoc.c **** *     CY_ISR_PROTO(MyISR);
 221:Generated_Source\PSoC5/isr_adc_eoc.c **** *
 222:Generated_Source\PSoC5/isr_adc_eoc.c **** * Parameters:
 223:Generated_Source\PSoC5/isr_adc_eoc.c **** *   address: Address of the ISR to set in the interrupt vector table.
 224:Generated_Source\PSoC5/isr_adc_eoc.c **** *
 225:Generated_Source\PSoC5/isr_adc_eoc.c **** * Return:
 226:Generated_Source\PSoC5/isr_adc_eoc.c **** *   None
 227:Generated_Source\PSoC5/isr_adc_eoc.c **** *
 228:Generated_Source\PSoC5/isr_adc_eoc.c **** *******************************************************************************/
 229:Generated_Source\PSoC5/isr_adc_eoc.c **** void isr_adc_eoc_SetVector(cyisraddress address)
 230:Generated_Source\PSoC5/isr_adc_eoc.c **** {
ARM GAS  C:\Users\pearlstl\AppData\Local\Temp\ccZGnWBa.s 			page 9


 225              		.loc 1 230 0
 226              		.cfi_startproc
 227              		@ args = 0, pretend = 0, frame = 16
 228              		@ frame_needed = 1, uses_anonymous_args = 0
 229              		@ link register save eliminated.
 230 0000 80B4     		push	{r7}
 231              		.cfi_def_cfa_offset 4
 232              		.cfi_offset 7, -4
 233 0002 85B0     		sub	sp, sp, #20
 234              		.cfi_def_cfa_offset 24
 235 0004 00AF     		add	r7, sp, #0
 236              		.cfi_def_cfa_register 7
 237 0006 7860     		str	r0, [r7, #4]
 231:Generated_Source\PSoC5/isr_adc_eoc.c ****     cyisraddress * ramVectorTable;
 232:Generated_Source\PSoC5/isr_adc_eoc.c **** 
 233:Generated_Source\PSoC5/isr_adc_eoc.c ****     ramVectorTable = (cyisraddress *) *CYINT_VECT_TABLE;
 238              		.loc 1 233 0
 239 0008 054B     		ldr	r3, .L15
 240 000a 1B68     		ldr	r3, [r3]
 241 000c FB60     		str	r3, [r7, #12]
 234:Generated_Source\PSoC5/isr_adc_eoc.c **** 
 235:Generated_Source\PSoC5/isr_adc_eoc.c ****     ramVectorTable[CYINT_IRQ_BASE + (uint32)isr_adc_eoc__INTC_NUMBER] = address;
 242              		.loc 1 235 0
 243 000e FB68     		ldr	r3, [r7, #12]
 244 0010 4433     		adds	r3, r3, #68
 245 0012 7A68     		ldr	r2, [r7, #4]
 246 0014 1A60     		str	r2, [r3]
 236:Generated_Source\PSoC5/isr_adc_eoc.c **** }
 247              		.loc 1 236 0
 248 0016 00BF     		nop
 249 0018 1437     		adds	r7, r7, #20
 250              		.cfi_def_cfa_offset 4
 251 001a BD46     		mov	sp, r7
 252              		.cfi_def_cfa_register 13
 253              		@ sp needed
 254 001c 80BC     		pop	{r7}
 255              		.cfi_restore 7
 256              		.cfi_def_cfa_offset 0
 257 001e 7047     		bx	lr
 258              	.L16:
 259              		.align	2
 260              	.L15:
 261 0020 08ED00E0 		.word	-536810232
 262              		.cfi_endproc
 263              	.LFE67:
 264              		.size	isr_adc_eoc_SetVector, .-isr_adc_eoc_SetVector
 265              		.section	.text.isr_adc_eoc_GetVector,"ax",%progbits
 266              		.align	2
 267              		.global	isr_adc_eoc_GetVector
 268              		.thumb
 269              		.thumb_func
 270              		.type	isr_adc_eoc_GetVector, %function
 271              	isr_adc_eoc_GetVector:
 272              	.LFB68:
 237:Generated_Source\PSoC5/isr_adc_eoc.c **** 
 238:Generated_Source\PSoC5/isr_adc_eoc.c **** 
 239:Generated_Source\PSoC5/isr_adc_eoc.c **** /*******************************************************************************
ARM GAS  C:\Users\pearlstl\AppData\Local\Temp\ccZGnWBa.s 			page 10


 240:Generated_Source\PSoC5/isr_adc_eoc.c **** * Function Name: isr_adc_eoc_GetVector
 241:Generated_Source\PSoC5/isr_adc_eoc.c **** ********************************************************************************
 242:Generated_Source\PSoC5/isr_adc_eoc.c **** *
 243:Generated_Source\PSoC5/isr_adc_eoc.c **** * Summary:
 244:Generated_Source\PSoC5/isr_adc_eoc.c **** *   Gets the "address" of the current ISR vector for the Interrupt.
 245:Generated_Source\PSoC5/isr_adc_eoc.c **** *
 246:Generated_Source\PSoC5/isr_adc_eoc.c **** * Parameters:
 247:Generated_Source\PSoC5/isr_adc_eoc.c **** *   None
 248:Generated_Source\PSoC5/isr_adc_eoc.c **** *
 249:Generated_Source\PSoC5/isr_adc_eoc.c **** * Return:
 250:Generated_Source\PSoC5/isr_adc_eoc.c **** *   Address of the ISR in the interrupt vector table.
 251:Generated_Source\PSoC5/isr_adc_eoc.c **** *
 252:Generated_Source\PSoC5/isr_adc_eoc.c **** *******************************************************************************/
 253:Generated_Source\PSoC5/isr_adc_eoc.c **** cyisraddress isr_adc_eoc_GetVector(void)
 254:Generated_Source\PSoC5/isr_adc_eoc.c **** {
 273              		.loc 1 254 0
 274              		.cfi_startproc
 275              		@ args = 0, pretend = 0, frame = 8
 276              		@ frame_needed = 1, uses_anonymous_args = 0
 277              		@ link register save eliminated.
 278 0000 80B4     		push	{r7}
 279              		.cfi_def_cfa_offset 4
 280              		.cfi_offset 7, -4
 281 0002 83B0     		sub	sp, sp, #12
 282              		.cfi_def_cfa_offset 16
 283 0004 00AF     		add	r7, sp, #0
 284              		.cfi_def_cfa_register 7
 255:Generated_Source\PSoC5/isr_adc_eoc.c ****     cyisraddress * ramVectorTable;
 256:Generated_Source\PSoC5/isr_adc_eoc.c **** 
 257:Generated_Source\PSoC5/isr_adc_eoc.c ****     ramVectorTable = (cyisraddress *) *CYINT_VECT_TABLE;
 285              		.loc 1 257 0
 286 0006 054B     		ldr	r3, .L19
 287 0008 1B68     		ldr	r3, [r3]
 288 000a 7B60     		str	r3, [r7, #4]
 258:Generated_Source\PSoC5/isr_adc_eoc.c **** 
 259:Generated_Source\PSoC5/isr_adc_eoc.c ****     return ramVectorTable[CYINT_IRQ_BASE + (uint32)isr_adc_eoc__INTC_NUMBER];
 289              		.loc 1 259 0
 290 000c 7B68     		ldr	r3, [r7, #4]
 291 000e 5B6C     		ldr	r3, [r3, #68]
 260:Generated_Source\PSoC5/isr_adc_eoc.c **** }
 292              		.loc 1 260 0
 293 0010 1846     		mov	r0, r3
 294 0012 0C37     		adds	r7, r7, #12
 295              		.cfi_def_cfa_offset 4
 296 0014 BD46     		mov	sp, r7
 297              		.cfi_def_cfa_register 13
 298              		@ sp needed
 299 0016 80BC     		pop	{r7}
 300              		.cfi_restore 7
 301              		.cfi_def_cfa_offset 0
 302 0018 7047     		bx	lr
 303              	.L20:
 304 001a 00BF     		.align	2
 305              	.L19:
 306 001c 08ED00E0 		.word	-536810232
 307              		.cfi_endproc
 308              	.LFE68:
ARM GAS  C:\Users\pearlstl\AppData\Local\Temp\ccZGnWBa.s 			page 11


 309              		.size	isr_adc_eoc_GetVector, .-isr_adc_eoc_GetVector
 310              		.section	.text.isr_adc_eoc_SetPriority,"ax",%progbits
 311              		.align	2
 312              		.global	isr_adc_eoc_SetPriority
 313              		.thumb
 314              		.thumb_func
 315              		.type	isr_adc_eoc_SetPriority, %function
 316              	isr_adc_eoc_SetPriority:
 317              	.LFB69:
 261:Generated_Source\PSoC5/isr_adc_eoc.c **** 
 262:Generated_Source\PSoC5/isr_adc_eoc.c **** 
 263:Generated_Source\PSoC5/isr_adc_eoc.c **** /*******************************************************************************
 264:Generated_Source\PSoC5/isr_adc_eoc.c **** * Function Name: isr_adc_eoc_SetPriority
 265:Generated_Source\PSoC5/isr_adc_eoc.c **** ********************************************************************************
 266:Generated_Source\PSoC5/isr_adc_eoc.c **** *
 267:Generated_Source\PSoC5/isr_adc_eoc.c **** * Summary:
 268:Generated_Source\PSoC5/isr_adc_eoc.c **** *   Sets the Priority of the Interrupt. 
 269:Generated_Source\PSoC5/isr_adc_eoc.c **** *
 270:Generated_Source\PSoC5/isr_adc_eoc.c **** *   Note calling isr_adc_eoc_Start or isr_adc_eoc_StartEx will 
 271:Generated_Source\PSoC5/isr_adc_eoc.c **** *   override any effect this API would have had. This API should only be called
 272:Generated_Source\PSoC5/isr_adc_eoc.c **** *   after isr_adc_eoc_Start or isr_adc_eoc_StartEx has been called. 
 273:Generated_Source\PSoC5/isr_adc_eoc.c **** *   To set the initial priority for the component, use the Design-Wide Resources
 274:Generated_Source\PSoC5/isr_adc_eoc.c **** *   Interrupt Editor.
 275:Generated_Source\PSoC5/isr_adc_eoc.c **** *
 276:Generated_Source\PSoC5/isr_adc_eoc.c **** *   Note This API has no effect on Non-maskable interrupt NMI).
 277:Generated_Source\PSoC5/isr_adc_eoc.c **** *
 278:Generated_Source\PSoC5/isr_adc_eoc.c **** * Parameters:
 279:Generated_Source\PSoC5/isr_adc_eoc.c **** *   priority: Priority of the interrupt, 0 being the highest priority
 280:Generated_Source\PSoC5/isr_adc_eoc.c **** *             PSoC 3 and PSoC 5LP: Priority is from 0 to 7.
 281:Generated_Source\PSoC5/isr_adc_eoc.c **** *             PSoC 4: Priority is from 0 to 3.
 282:Generated_Source\PSoC5/isr_adc_eoc.c **** *
 283:Generated_Source\PSoC5/isr_adc_eoc.c **** * Return:
 284:Generated_Source\PSoC5/isr_adc_eoc.c **** *   None
 285:Generated_Source\PSoC5/isr_adc_eoc.c **** *
 286:Generated_Source\PSoC5/isr_adc_eoc.c **** *******************************************************************************/
 287:Generated_Source\PSoC5/isr_adc_eoc.c **** void isr_adc_eoc_SetPriority(uint8 priority)
 288:Generated_Source\PSoC5/isr_adc_eoc.c **** {
 318              		.loc 1 288 0
 319              		.cfi_startproc
 320              		@ args = 0, pretend = 0, frame = 8
 321              		@ frame_needed = 1, uses_anonymous_args = 0
 322              		@ link register save eliminated.
 323 0000 80B4     		push	{r7}
 324              		.cfi_def_cfa_offset 4
 325              		.cfi_offset 7, -4
 326 0002 83B0     		sub	sp, sp, #12
 327              		.cfi_def_cfa_offset 16
 328 0004 00AF     		add	r7, sp, #0
 329              		.cfi_def_cfa_register 7
 330 0006 0346     		mov	r3, r0
 331 0008 FB71     		strb	r3, [r7, #7]
 289:Generated_Source\PSoC5/isr_adc_eoc.c ****     *isr_adc_eoc_INTC_PRIOR = priority << 5;
 332              		.loc 1 289 0
 333 000a 054A     		ldr	r2, .L22
 334 000c FB79     		ldrb	r3, [r7, #7]
 335 000e 5B01     		lsls	r3, r3, #5
 336 0010 DBB2     		uxtb	r3, r3
ARM GAS  C:\Users\pearlstl\AppData\Local\Temp\ccZGnWBa.s 			page 12


 337 0012 1370     		strb	r3, [r2]
 290:Generated_Source\PSoC5/isr_adc_eoc.c **** }
 338              		.loc 1 290 0
 339 0014 00BF     		nop
 340 0016 0C37     		adds	r7, r7, #12
 341              		.cfi_def_cfa_offset 4
 342 0018 BD46     		mov	sp, r7
 343              		.cfi_def_cfa_register 13
 344              		@ sp needed
 345 001a 80BC     		pop	{r7}
 346              		.cfi_restore 7
 347              		.cfi_def_cfa_offset 0
 348 001c 7047     		bx	lr
 349              	.L23:
 350 001e 00BF     		.align	2
 351              	.L22:
 352 0020 01E400E0 		.word	-536812543
 353              		.cfi_endproc
 354              	.LFE69:
 355              		.size	isr_adc_eoc_SetPriority, .-isr_adc_eoc_SetPriority
 356              		.section	.text.isr_adc_eoc_GetPriority,"ax",%progbits
 357              		.align	2
 358              		.global	isr_adc_eoc_GetPriority
 359              		.thumb
 360              		.thumb_func
 361              		.type	isr_adc_eoc_GetPriority, %function
 362              	isr_adc_eoc_GetPriority:
 363              	.LFB70:
 291:Generated_Source\PSoC5/isr_adc_eoc.c **** 
 292:Generated_Source\PSoC5/isr_adc_eoc.c **** 
 293:Generated_Source\PSoC5/isr_adc_eoc.c **** /*******************************************************************************
 294:Generated_Source\PSoC5/isr_adc_eoc.c **** * Function Name: isr_adc_eoc_GetPriority
 295:Generated_Source\PSoC5/isr_adc_eoc.c **** ********************************************************************************
 296:Generated_Source\PSoC5/isr_adc_eoc.c **** *
 297:Generated_Source\PSoC5/isr_adc_eoc.c **** * Summary:
 298:Generated_Source\PSoC5/isr_adc_eoc.c **** *   Gets the Priority of the Interrupt.
 299:Generated_Source\PSoC5/isr_adc_eoc.c **** *
 300:Generated_Source\PSoC5/isr_adc_eoc.c **** * Parameters:
 301:Generated_Source\PSoC5/isr_adc_eoc.c **** *   None
 302:Generated_Source\PSoC5/isr_adc_eoc.c **** *
 303:Generated_Source\PSoC5/isr_adc_eoc.c **** * Return:
 304:Generated_Source\PSoC5/isr_adc_eoc.c **** *   Priority of the interrupt, 0 being the highest priority
 305:Generated_Source\PSoC5/isr_adc_eoc.c **** *    PSoC 3 and PSoC 5LP: Priority is from 0 to 7.
 306:Generated_Source\PSoC5/isr_adc_eoc.c **** *    PSoC 4: Priority is from 0 to 3.
 307:Generated_Source\PSoC5/isr_adc_eoc.c **** *
 308:Generated_Source\PSoC5/isr_adc_eoc.c **** *******************************************************************************/
 309:Generated_Source\PSoC5/isr_adc_eoc.c **** uint8 isr_adc_eoc_GetPriority(void)
 310:Generated_Source\PSoC5/isr_adc_eoc.c **** {
 364              		.loc 1 310 0
 365              		.cfi_startproc
 366              		@ args = 0, pretend = 0, frame = 8
 367              		@ frame_needed = 1, uses_anonymous_args = 0
 368              		@ link register save eliminated.
 369 0000 80B4     		push	{r7}
 370              		.cfi_def_cfa_offset 4
 371              		.cfi_offset 7, -4
 372 0002 83B0     		sub	sp, sp, #12
ARM GAS  C:\Users\pearlstl\AppData\Local\Temp\ccZGnWBa.s 			page 13


 373              		.cfi_def_cfa_offset 16
 374 0004 00AF     		add	r7, sp, #0
 375              		.cfi_def_cfa_register 7
 311:Generated_Source\PSoC5/isr_adc_eoc.c ****     uint8 priority;
 312:Generated_Source\PSoC5/isr_adc_eoc.c **** 
 313:Generated_Source\PSoC5/isr_adc_eoc.c **** 
 314:Generated_Source\PSoC5/isr_adc_eoc.c ****     priority = *isr_adc_eoc_INTC_PRIOR >> 5;
 376              		.loc 1 314 0
 377 0006 054B     		ldr	r3, .L26
 378 0008 1B78     		ldrb	r3, [r3]
 379 000a DBB2     		uxtb	r3, r3
 380 000c 5B09     		lsrs	r3, r3, #5
 381 000e FB71     		strb	r3, [r7, #7]
 315:Generated_Source\PSoC5/isr_adc_eoc.c **** 
 316:Generated_Source\PSoC5/isr_adc_eoc.c ****     return priority;
 382              		.loc 1 316 0
 383 0010 FB79     		ldrb	r3, [r7, #7]	@ zero_extendqisi2
 317:Generated_Source\PSoC5/isr_adc_eoc.c **** }
 384              		.loc 1 317 0
 385 0012 1846     		mov	r0, r3
 386 0014 0C37     		adds	r7, r7, #12
 387              		.cfi_def_cfa_offset 4
 388 0016 BD46     		mov	sp, r7
 389              		.cfi_def_cfa_register 13
 390              		@ sp needed
 391 0018 80BC     		pop	{r7}
 392              		.cfi_restore 7
 393              		.cfi_def_cfa_offset 0
 394 001a 7047     		bx	lr
 395              	.L27:
 396              		.align	2
 397              	.L26:
 398 001c 01E400E0 		.word	-536812543
 399              		.cfi_endproc
 400              	.LFE70:
 401              		.size	isr_adc_eoc_GetPriority, .-isr_adc_eoc_GetPriority
 402              		.section	.text.isr_adc_eoc_Enable,"ax",%progbits
 403              		.align	2
 404              		.global	isr_adc_eoc_Enable
 405              		.thumb
 406              		.thumb_func
 407              		.type	isr_adc_eoc_Enable, %function
 408              	isr_adc_eoc_Enable:
 409              	.LFB71:
 318:Generated_Source\PSoC5/isr_adc_eoc.c **** 
 319:Generated_Source\PSoC5/isr_adc_eoc.c **** 
 320:Generated_Source\PSoC5/isr_adc_eoc.c **** /*******************************************************************************
 321:Generated_Source\PSoC5/isr_adc_eoc.c **** * Function Name: isr_adc_eoc_Enable
 322:Generated_Source\PSoC5/isr_adc_eoc.c **** ********************************************************************************
 323:Generated_Source\PSoC5/isr_adc_eoc.c **** *
 324:Generated_Source\PSoC5/isr_adc_eoc.c **** * Summary:
 325:Generated_Source\PSoC5/isr_adc_eoc.c **** *   Enables the interrupt to the interrupt controller. Do not call this function
 326:Generated_Source\PSoC5/isr_adc_eoc.c **** *   unless ISR_Start() has been called or the functionality of the ISR_Start() 
 327:Generated_Source\PSoC5/isr_adc_eoc.c **** *   function, which sets the vector and the priority, has been called.
 328:Generated_Source\PSoC5/isr_adc_eoc.c **** *
 329:Generated_Source\PSoC5/isr_adc_eoc.c **** * Parameters:
 330:Generated_Source\PSoC5/isr_adc_eoc.c **** *   None
ARM GAS  C:\Users\pearlstl\AppData\Local\Temp\ccZGnWBa.s 			page 14


 331:Generated_Source\PSoC5/isr_adc_eoc.c **** *
 332:Generated_Source\PSoC5/isr_adc_eoc.c **** * Return:
 333:Generated_Source\PSoC5/isr_adc_eoc.c **** *   None
 334:Generated_Source\PSoC5/isr_adc_eoc.c **** *
 335:Generated_Source\PSoC5/isr_adc_eoc.c **** *******************************************************************************/
 336:Generated_Source\PSoC5/isr_adc_eoc.c **** void isr_adc_eoc_Enable(void)
 337:Generated_Source\PSoC5/isr_adc_eoc.c **** {
 410              		.loc 1 337 0
 411              		.cfi_startproc
 412              		@ args = 0, pretend = 0, frame = 0
 413              		@ frame_needed = 1, uses_anonymous_args = 0
 414              		@ link register save eliminated.
 415 0000 80B4     		push	{r7}
 416              		.cfi_def_cfa_offset 4
 417              		.cfi_offset 7, -4
 418 0002 00AF     		add	r7, sp, #0
 419              		.cfi_def_cfa_register 7
 338:Generated_Source\PSoC5/isr_adc_eoc.c ****     /* Enable the general interrupt. */
 339:Generated_Source\PSoC5/isr_adc_eoc.c ****     *isr_adc_eoc_INTC_SET_EN = isr_adc_eoc__INTC_MASK;
 420              		.loc 1 339 0
 421 0004 034B     		ldr	r3, .L29
 422 0006 0222     		movs	r2, #2
 423 0008 1A60     		str	r2, [r3]
 340:Generated_Source\PSoC5/isr_adc_eoc.c **** }
 424              		.loc 1 340 0
 425 000a 00BF     		nop
 426 000c BD46     		mov	sp, r7
 427              		.cfi_def_cfa_register 13
 428              		@ sp needed
 429 000e 80BC     		pop	{r7}
 430              		.cfi_restore 7
 431              		.cfi_def_cfa_offset 0
 432 0010 7047     		bx	lr
 433              	.L30:
 434 0012 00BF     		.align	2
 435              	.L29:
 436 0014 00E100E0 		.word	-536813312
 437              		.cfi_endproc
 438              	.LFE71:
 439              		.size	isr_adc_eoc_Enable, .-isr_adc_eoc_Enable
 440              		.section	.text.isr_adc_eoc_GetState,"ax",%progbits
 441              		.align	2
 442              		.global	isr_adc_eoc_GetState
 443              		.thumb
 444              		.thumb_func
 445              		.type	isr_adc_eoc_GetState, %function
 446              	isr_adc_eoc_GetState:
 447              	.LFB72:
 341:Generated_Source\PSoC5/isr_adc_eoc.c **** 
 342:Generated_Source\PSoC5/isr_adc_eoc.c **** 
 343:Generated_Source\PSoC5/isr_adc_eoc.c **** /*******************************************************************************
 344:Generated_Source\PSoC5/isr_adc_eoc.c **** * Function Name: isr_adc_eoc_GetState
 345:Generated_Source\PSoC5/isr_adc_eoc.c **** ********************************************************************************
 346:Generated_Source\PSoC5/isr_adc_eoc.c **** *
 347:Generated_Source\PSoC5/isr_adc_eoc.c **** * Summary:
 348:Generated_Source\PSoC5/isr_adc_eoc.c **** *   Gets the state (enabled, disabled) of the Interrupt.
 349:Generated_Source\PSoC5/isr_adc_eoc.c **** *
ARM GAS  C:\Users\pearlstl\AppData\Local\Temp\ccZGnWBa.s 			page 15


 350:Generated_Source\PSoC5/isr_adc_eoc.c **** * Parameters:
 351:Generated_Source\PSoC5/isr_adc_eoc.c **** *   None
 352:Generated_Source\PSoC5/isr_adc_eoc.c **** *
 353:Generated_Source\PSoC5/isr_adc_eoc.c **** * Return:
 354:Generated_Source\PSoC5/isr_adc_eoc.c **** *   1 if enabled, 0 if disabled.
 355:Generated_Source\PSoC5/isr_adc_eoc.c **** *
 356:Generated_Source\PSoC5/isr_adc_eoc.c **** *******************************************************************************/
 357:Generated_Source\PSoC5/isr_adc_eoc.c **** uint8 isr_adc_eoc_GetState(void)
 358:Generated_Source\PSoC5/isr_adc_eoc.c **** {
 448              		.loc 1 358 0
 449              		.cfi_startproc
 450              		@ args = 0, pretend = 0, frame = 0
 451              		@ frame_needed = 1, uses_anonymous_args = 0
 452              		@ link register save eliminated.
 453 0000 80B4     		push	{r7}
 454              		.cfi_def_cfa_offset 4
 455              		.cfi_offset 7, -4
 456 0002 00AF     		add	r7, sp, #0
 457              		.cfi_def_cfa_register 7
 359:Generated_Source\PSoC5/isr_adc_eoc.c ****     /* Get the state of the general interrupt. */
 360:Generated_Source\PSoC5/isr_adc_eoc.c ****     return ((*isr_adc_eoc_INTC_SET_EN & (uint32)isr_adc_eoc__INTC_MASK) != 0u) ? 1u:0u;
 458              		.loc 1 360 0
 459 0004 064B     		ldr	r3, .L35
 460 0006 1B68     		ldr	r3, [r3]
 461 0008 03F00203 		and	r3, r3, #2
 462 000c 002B     		cmp	r3, #0
 463 000e 01D0     		beq	.L32
 464              		.loc 1 360 0 is_stmt 0 discriminator 1
 465 0010 0123     		movs	r3, #1
 466 0012 00E0     		b	.L33
 467              	.L32:
 468              		.loc 1 360 0 discriminator 2
 469 0014 0023     		movs	r3, #0
 470              	.L33:
 361:Generated_Source\PSoC5/isr_adc_eoc.c **** }
 471              		.loc 1 361 0 is_stmt 1 discriminator 4
 472 0016 1846     		mov	r0, r3
 473 0018 BD46     		mov	sp, r7
 474              		.cfi_def_cfa_register 13
 475              		@ sp needed
 476 001a 80BC     		pop	{r7}
 477              		.cfi_restore 7
 478              		.cfi_def_cfa_offset 0
 479 001c 7047     		bx	lr
 480              	.L36:
 481 001e 00BF     		.align	2
 482              	.L35:
 483 0020 00E100E0 		.word	-536813312
 484              		.cfi_endproc
 485              	.LFE72:
 486              		.size	isr_adc_eoc_GetState, .-isr_adc_eoc_GetState
 487              		.section	.text.isr_adc_eoc_Disable,"ax",%progbits
 488              		.align	2
 489              		.global	isr_adc_eoc_Disable
 490              		.thumb
 491              		.thumb_func
 492              		.type	isr_adc_eoc_Disable, %function
ARM GAS  C:\Users\pearlstl\AppData\Local\Temp\ccZGnWBa.s 			page 16


 493              	isr_adc_eoc_Disable:
 494              	.LFB73:
 362:Generated_Source\PSoC5/isr_adc_eoc.c **** 
 363:Generated_Source\PSoC5/isr_adc_eoc.c **** 
 364:Generated_Source\PSoC5/isr_adc_eoc.c **** /*******************************************************************************
 365:Generated_Source\PSoC5/isr_adc_eoc.c **** * Function Name: isr_adc_eoc_Disable
 366:Generated_Source\PSoC5/isr_adc_eoc.c **** ********************************************************************************
 367:Generated_Source\PSoC5/isr_adc_eoc.c **** *
 368:Generated_Source\PSoC5/isr_adc_eoc.c **** * Summary:
 369:Generated_Source\PSoC5/isr_adc_eoc.c **** *   Disables the Interrupt in the interrupt controller.
 370:Generated_Source\PSoC5/isr_adc_eoc.c **** *
 371:Generated_Source\PSoC5/isr_adc_eoc.c **** * Parameters:
 372:Generated_Source\PSoC5/isr_adc_eoc.c **** *   None
 373:Generated_Source\PSoC5/isr_adc_eoc.c **** *
 374:Generated_Source\PSoC5/isr_adc_eoc.c **** * Return:
 375:Generated_Source\PSoC5/isr_adc_eoc.c **** *   None
 376:Generated_Source\PSoC5/isr_adc_eoc.c **** *
 377:Generated_Source\PSoC5/isr_adc_eoc.c **** *******************************************************************************/
 378:Generated_Source\PSoC5/isr_adc_eoc.c **** void isr_adc_eoc_Disable(void)
 379:Generated_Source\PSoC5/isr_adc_eoc.c **** {
 495              		.loc 1 379 0
 496              		.cfi_startproc
 497              		@ args = 0, pretend = 0, frame = 0
 498              		@ frame_needed = 1, uses_anonymous_args = 0
 499              		@ link register save eliminated.
 500 0000 80B4     		push	{r7}
 501              		.cfi_def_cfa_offset 4
 502              		.cfi_offset 7, -4
 503 0002 00AF     		add	r7, sp, #0
 504              		.cfi_def_cfa_register 7
 380:Generated_Source\PSoC5/isr_adc_eoc.c ****     /* Disable the general interrupt. */
 381:Generated_Source\PSoC5/isr_adc_eoc.c ****     *isr_adc_eoc_INTC_CLR_EN = isr_adc_eoc__INTC_MASK;
 505              		.loc 1 381 0
 506 0004 034B     		ldr	r3, .L38
 507 0006 0222     		movs	r2, #2
 508 0008 1A60     		str	r2, [r3]
 382:Generated_Source\PSoC5/isr_adc_eoc.c **** }
 509              		.loc 1 382 0
 510 000a 00BF     		nop
 511 000c BD46     		mov	sp, r7
 512              		.cfi_def_cfa_register 13
 513              		@ sp needed
 514 000e 80BC     		pop	{r7}
 515              		.cfi_restore 7
 516              		.cfi_def_cfa_offset 0
 517 0010 7047     		bx	lr
 518              	.L39:
 519 0012 00BF     		.align	2
 520              	.L38:
 521 0014 80E100E0 		.word	-536813184
 522              		.cfi_endproc
 523              	.LFE73:
 524              		.size	isr_adc_eoc_Disable, .-isr_adc_eoc_Disable
 525              		.section	.text.isr_adc_eoc_SetPending,"ax",%progbits
 526              		.align	2
 527              		.global	isr_adc_eoc_SetPending
 528              		.thumb
ARM GAS  C:\Users\pearlstl\AppData\Local\Temp\ccZGnWBa.s 			page 17


 529              		.thumb_func
 530              		.type	isr_adc_eoc_SetPending, %function
 531              	isr_adc_eoc_SetPending:
 532              	.LFB74:
 383:Generated_Source\PSoC5/isr_adc_eoc.c **** 
 384:Generated_Source\PSoC5/isr_adc_eoc.c **** 
 385:Generated_Source\PSoC5/isr_adc_eoc.c **** /*******************************************************************************
 386:Generated_Source\PSoC5/isr_adc_eoc.c **** * Function Name: isr_adc_eoc_SetPending
 387:Generated_Source\PSoC5/isr_adc_eoc.c **** ********************************************************************************
 388:Generated_Source\PSoC5/isr_adc_eoc.c **** *
 389:Generated_Source\PSoC5/isr_adc_eoc.c **** * Summary:
 390:Generated_Source\PSoC5/isr_adc_eoc.c **** *   Causes the Interrupt to enter the pending state, a software method of
 391:Generated_Source\PSoC5/isr_adc_eoc.c **** *   generating the interrupt.
 392:Generated_Source\PSoC5/isr_adc_eoc.c **** *
 393:Generated_Source\PSoC5/isr_adc_eoc.c **** * Parameters:
 394:Generated_Source\PSoC5/isr_adc_eoc.c **** *   None
 395:Generated_Source\PSoC5/isr_adc_eoc.c **** *
 396:Generated_Source\PSoC5/isr_adc_eoc.c **** * Return:
 397:Generated_Source\PSoC5/isr_adc_eoc.c **** *   None
 398:Generated_Source\PSoC5/isr_adc_eoc.c **** *
 399:Generated_Source\PSoC5/isr_adc_eoc.c **** * Side Effects:
 400:Generated_Source\PSoC5/isr_adc_eoc.c **** *   If interrupts are enabled and the interrupt is set up properly, the ISR is
 401:Generated_Source\PSoC5/isr_adc_eoc.c **** *   entered (depending on the priority of this interrupt and other pending 
 402:Generated_Source\PSoC5/isr_adc_eoc.c **** *   interrupts).
 403:Generated_Source\PSoC5/isr_adc_eoc.c **** *
 404:Generated_Source\PSoC5/isr_adc_eoc.c **** *******************************************************************************/
 405:Generated_Source\PSoC5/isr_adc_eoc.c **** void isr_adc_eoc_SetPending(void)
 406:Generated_Source\PSoC5/isr_adc_eoc.c **** {
 533              		.loc 1 406 0
 534              		.cfi_startproc
 535              		@ args = 0, pretend = 0, frame = 0
 536              		@ frame_needed = 1, uses_anonymous_args = 0
 537              		@ link register save eliminated.
 538 0000 80B4     		push	{r7}
 539              		.cfi_def_cfa_offset 4
 540              		.cfi_offset 7, -4
 541 0002 00AF     		add	r7, sp, #0
 542              		.cfi_def_cfa_register 7
 407:Generated_Source\PSoC5/isr_adc_eoc.c ****     *isr_adc_eoc_INTC_SET_PD = isr_adc_eoc__INTC_MASK;
 543              		.loc 1 407 0
 544 0004 034B     		ldr	r3, .L41
 545 0006 0222     		movs	r2, #2
 546 0008 1A60     		str	r2, [r3]
 408:Generated_Source\PSoC5/isr_adc_eoc.c **** }
 547              		.loc 1 408 0
 548 000a 00BF     		nop
 549 000c BD46     		mov	sp, r7
 550              		.cfi_def_cfa_register 13
 551              		@ sp needed
 552 000e 80BC     		pop	{r7}
 553              		.cfi_restore 7
 554              		.cfi_def_cfa_offset 0
 555 0010 7047     		bx	lr
 556              	.L42:
 557 0012 00BF     		.align	2
 558              	.L41:
 559 0014 00E200E0 		.word	-536813056
ARM GAS  C:\Users\pearlstl\AppData\Local\Temp\ccZGnWBa.s 			page 18


 560              		.cfi_endproc
 561              	.LFE74:
 562              		.size	isr_adc_eoc_SetPending, .-isr_adc_eoc_SetPending
 563              		.section	.text.isr_adc_eoc_ClearPending,"ax",%progbits
 564              		.align	2
 565              		.global	isr_adc_eoc_ClearPending
 566              		.thumb
 567              		.thumb_func
 568              		.type	isr_adc_eoc_ClearPending, %function
 569              	isr_adc_eoc_ClearPending:
 570              	.LFB75:
 409:Generated_Source\PSoC5/isr_adc_eoc.c **** 
 410:Generated_Source\PSoC5/isr_adc_eoc.c **** 
 411:Generated_Source\PSoC5/isr_adc_eoc.c **** /*******************************************************************************
 412:Generated_Source\PSoC5/isr_adc_eoc.c **** * Function Name: isr_adc_eoc_ClearPending
 413:Generated_Source\PSoC5/isr_adc_eoc.c **** ********************************************************************************
 414:Generated_Source\PSoC5/isr_adc_eoc.c **** *
 415:Generated_Source\PSoC5/isr_adc_eoc.c **** * Summary:
 416:Generated_Source\PSoC5/isr_adc_eoc.c **** *   Clears a pending interrupt in the interrupt controller.
 417:Generated_Source\PSoC5/isr_adc_eoc.c **** *
 418:Generated_Source\PSoC5/isr_adc_eoc.c **** *   Note Some interrupt sources are clear-on-read and require the block 
 419:Generated_Source\PSoC5/isr_adc_eoc.c **** *   interrupt/status register to be read/cleared with the appropriate block API 
 420:Generated_Source\PSoC5/isr_adc_eoc.c **** *   (GPIO, UART, and so on). Otherwise the ISR will continue to remain in 
 421:Generated_Source\PSoC5/isr_adc_eoc.c **** *   pending state even though the interrupt itself is cleared using this API.
 422:Generated_Source\PSoC5/isr_adc_eoc.c **** *
 423:Generated_Source\PSoC5/isr_adc_eoc.c **** * Parameters:
 424:Generated_Source\PSoC5/isr_adc_eoc.c **** *   None
 425:Generated_Source\PSoC5/isr_adc_eoc.c **** *
 426:Generated_Source\PSoC5/isr_adc_eoc.c **** * Return:
 427:Generated_Source\PSoC5/isr_adc_eoc.c **** *   None
 428:Generated_Source\PSoC5/isr_adc_eoc.c **** *
 429:Generated_Source\PSoC5/isr_adc_eoc.c **** *******************************************************************************/
 430:Generated_Source\PSoC5/isr_adc_eoc.c **** void isr_adc_eoc_ClearPending(void)
 431:Generated_Source\PSoC5/isr_adc_eoc.c **** {
 571              		.loc 1 431 0
 572              		.cfi_startproc
 573              		@ args = 0, pretend = 0, frame = 0
 574              		@ frame_needed = 1, uses_anonymous_args = 0
 575              		@ link register save eliminated.
 576 0000 80B4     		push	{r7}
 577              		.cfi_def_cfa_offset 4
 578              		.cfi_offset 7, -4
 579 0002 00AF     		add	r7, sp, #0
 580              		.cfi_def_cfa_register 7
 432:Generated_Source\PSoC5/isr_adc_eoc.c ****     *isr_adc_eoc_INTC_CLR_PD = isr_adc_eoc__INTC_MASK;
 581              		.loc 1 432 0
 582 0004 034B     		ldr	r3, .L44
 583 0006 0222     		movs	r2, #2
 584 0008 1A60     		str	r2, [r3]
 433:Generated_Source\PSoC5/isr_adc_eoc.c **** }
 585              		.loc 1 433 0
 586 000a 00BF     		nop
 587 000c BD46     		mov	sp, r7
 588              		.cfi_def_cfa_register 13
 589              		@ sp needed
 590 000e 80BC     		pop	{r7}
 591              		.cfi_restore 7
ARM GAS  C:\Users\pearlstl\AppData\Local\Temp\ccZGnWBa.s 			page 19


 592              		.cfi_def_cfa_offset 0
 593 0010 7047     		bx	lr
 594              	.L45:
 595 0012 00BF     		.align	2
 596              	.L44:
 597 0014 80E200E0 		.word	-536812928
 598              		.cfi_endproc
 599              	.LFE75:
 600              		.size	isr_adc_eoc_ClearPending, .-isr_adc_eoc_ClearPending
 601              		.text
 602              	.Letext0:
 603              		.file 2 "c:\\program files (x86)\\cypress\\psoc creator\\4.2\\psoc creator\\import\\gnu\\arm\\5.4.
 604              		.file 3 "c:\\program files (x86)\\cypress\\psoc creator\\4.2\\psoc creator\\import\\gnu\\arm\\5.4.
 605              		.file 4 "Generated_Source\\PSoC5/cytypes.h"
 606              		.file 5 "Generated_Source\\PSoC5/core_cm3.h"